ccopy_reg
_reconstructor
p0
(cdebian_linux.config
ConfigCore
p1
c__builtin__
dict
p2
(dp3
(Vimage
p4
Vamd64
p5
tp6
(dp7
Vinstall-stem
p8
Vvmlinuz
p9
sVconfigs
p10
(lp11
sVbootloaders
p12
(lp13
Vgrub-pc
p14
aVgrub-efi
p15
aVextlinux
p16
ass(Vdescription
p17
NVrt
p18
tp19
(dp20
Vpart-long-rt
p21
VThis kernel includes the PREEMPT_RT realtime patch set.
p22
sVparts
p23
(lp24
Vrt
p25
asVpart-short-rt
p26
VPREEMPT_RT
p27
ss(Vbase
p28
g5
Vnone
p29
tp30
(dp31
Vflavours
p32
(lp33
Vamd64
p34
ass(Vimage
p35
Vpowerpcspe
p36
tp37
(dp38
Vsuggests
p39
Vmkvmlinuz
p40
sVinstall-stem
p41
Vvmlinux
p42
ss(Vdescription
p43
Varmel
p44
NVkirkwood
p45
tp46
(dp47
Vhardware
p48
VMarvell Kirkwood
p49
sVhardware-long
p50
VMarvell Kirkwood based systems (SheevaPlug, QNAP TS-119/TS-219, etc)
p51
ss(Vdescription
p52
Vmipsel
p53
NVsb1-bcm91250a
p54
tp55
(dp56
Vhardware
p57
VBCM91250A
p58
sVhardware-long
p59
VBroadcom BCM91250A systems (aka SWARM)
p60
ss(Vimage
p61
Via64
p62
tp63
(dp64
Vsuggests
p65
Vfdutils
p66
sVbootloaders
p67
(lp68
Velilo
p69
asVinstall-stem
p70
Vvmlinuz
p71
ss(Vdescription
p72
Vmips64el
p73
NVsb1-bcm91250a
p74
tp75
(dp76
Vhardware
p77
VBCM91250A
p78
sVhardware-long
p79
VBroadcom BCM91250A systems (aka SWARM)
p80
ss(Vimage
p81
Vpowerpc
p82
NVpowerpc-smp
p83
tp84
(dp85
Vconfigs
p86
(lp87
Vpowerpc/config.powerpc
p88
aVpowerpc/config.powerpc-smp
p89
ass(Vdescription
p90
g5
g29
Vamd64
p91
tp92
(dp93
Vparts
p94
(lp95
Vxen
p96
ass(S'base'
p97
Vppc64
p98
S'none'
p99
tp100
(dp101
S'implicit-flavour'
p102
I01
sS'flavours'
p103
(lp104
Vpowerpc64
p105
ass(Vimage
p106
g73
NVocteon
p107
tp108
(dp109
Vconfigs
p110
(lp111
Vkernelarch-mips/config.octeon
p112
ass(Vimage
p113
Vi386
p114
NV586
p115
tp116
(dp117
Vconfigs
p118
(lp119
Vkernelarch-x86/config-arch-32
p120
aVi386/config.586
p121
ass(Vimage
p122
g73
NVsb1-bcm91250a
p123
tp124
(dp125
Vconfigs
p126
(lp127
Vkernelarch-mips/config.sb1-bcm91250a
p128
ass(Vimage
p129
Vs390
p130
NVs390x
p131
tp132
(dp133
Vconfigs
p134
(lp135
Vkernelarch-s390/config-arch-64
p136
ass(g97
Vmips
p137
g99
tp138
(dp139
g102
I01
sg103
(lp140
Vr4k-ip22
p141
aVr5k-ip32
p142
aVsb1-bcm91250a
p143
aV4kc-malta
p144
aV5kc-malta
p145
aVocteon
p146
ass(Vdescription
p147
g114
Vnone
p148
Vamd64
p149
tp150
(dp151
Vparts
p152
(lp153
Vxen
p154
ass(Vbase
p155
Valpha
p156
tp157
(dp158
Vkernel-arch
p159
Valpha
p160
sS'featuresets'
p161
(lp162
g99
ass(Vabi
p163
g44
NVorion5x
p164
tp165
(dp166
Vignore-changes
p167
(lp168
V__ring_buffer_alloc
p169
aVdcookie_register
p170
aVdcookie_unregister
p171
aVget_dcookie
p172
aVprof_on
p173
aVprofile_event_register
p174
aVprofile_event_unregister
p175
aVprofile_hits
p176
aVring_buffer_alloc_read_page
p177
aVring_buffer_bytes_cpu
p178
aVring_buffer_change_overwrite
p179
aVring_buffer_commit_overrun_cpu
p180
aVring_buffer_consume
p181
aVring_buffer_discard_commit
p182
aVring_buffer_dropped_events_cpu
p183
aVring_buffer_empty
p184
aVring_buffer_empty_cpu
p185
aVring_buffer_entries
p186
aVring_buffer_entries_cpu
p187
aVring_buffer_event_data
p188
aVring_buffer_event_length
p189
aVring_buffer_free
p190
aVring_buffer_free_read_page
p191
aVring_buffer_iter_empty
p192
aVring_buffer_iter_peek
p193
aVring_buffer_iter_reset
p194
aVring_buffer_lock_reserve
p195
aVring_buffer_normalize_time_stamp
p196
aVring_buffer_oldest_event_ts
p197
aVring_buffer_overrun_cpu
p198
aVring_buffer_overruns
p199
aVring_buffer_peek
p200
aVring_buffer_read
p201
aVring_buffer_read_events_cpu
p202
aVring_buffer_read_finish
p203
aVring_buffer_read_page
p204
aVring_buffer_read_prepare
p205
aVring_buffer_read_prepare_sync
p206
aVring_buffer_read_start
p207
aVring_buffer_record_disable
p208
aVring_buffer_record_disable_cpu
p209
aVring_buffer_record_enable
p210
aVring_buffer_record_enable_cpu
p211
aVring_buffer_record_off
p212
aVring_buffer_record_on
p213
aVring_buffer_reset
p214
aVring_buffer_reset_cpu
p215
aVring_buffer_resize
p216
aVring_buffer_size
p217
aVring_buffer_swap_cpu
p218
aVring_buffer_time_stamp
p219
aVring_buffer_unlock_commit
p220
aVring_buffer_write
p221
aVtask_handoff_register
p222
aVtask_handoff_unregister
p223
aVtrace_clock_local
p224
ass(Vdescription
p225
Vmips64
p226
NVocteon
p227
tp228
(dp229
Vhardware
p230
VOcteon
p231
sVhardware-long
p232
VCavium Networks Octeon
p233
ss(Vimage
p234
Vppc64el
p235
NVpowerpc64le
p236
tp237
(dp238
Vconfigs
p239
(lp240
Vkernelarch-powerpc/config-arch-64
p241
aVkernelarch-powerpc/config-arch-64-le
p242
ass(Vbase
p243
g114
Vrt
p244
tp245
(dp246
Vflavours
p247
(lp248
V686-pae
p249
ass(Vimage
p250
g73
NV5kc-malta
p251
tp252
(dp253
Vconfigs
p254
(lp255
Vkernelarch-mips/config.5kc-malta
p256
ass(Vimage
p257
g235
tp258
(dp259
Vsuggests
p260
Vmkvmlinuz
p261
sVconfigs
p262
(lp263
sVinstall-stem
p264
Vvmlinux
p265
ss(Vimage
p266
g137
NV4kc-malta
p267
tp268
(dp269
Vconfigs
p270
(lp271
Vkernelarch-mips/config.4kc-malta
p272
ass(Vrelations
p273
g114
tp274
(dp275
Vheaders%gcc-4.9
p276
Vlinux-compiler-gcc-4.9-x86 (>= 3.16.51-3+deb8u2~), linux-kbuild-3.16 (>= 3.16.56-1)
p277
ss(Vimage
p278
g82
tp279
(dp280
Vsuggests
p281
Vmkvmlinuz
p282
sVconfigs
p283
(lp284
sVinstall-stem
p285
Vvmlinux
p286
ss(Vimage
p287
g44
NVkirkwood
p288
tp289
(dp290
Vcheck-size
p291
V2097080
p292
sVbreaks
p293
Vflash-kernel (<< 3.14~)
p294
sVrecommends
p295
Vu-boot-tools
p296
ss(Vdescription
p297
Vsh4
p298
NVsh7785lcr
p299
tp300
(dp301
Vhardware
p302
Vsh7785lcr
p303
sVhardware-long
p304
VRenesas SH7785 reference board
p305
ss(Vbase
p306
g5
Vrt
p307
tp308
(dp309
Vflavours
p310
(lp311
Vamd64
p312
ass(Vbuild
p313
g235
tp314
(dp315
Vimage-file
p316
Vvmlinux
p317
ss(Vbuild
p318
g98
tp319
(dp320
Vimage-file
p321
Vvmlinux
p322
ss(Vdescription
p323
g226
NV5kc-malta
p324
tp325
(dp326
Vhardware
p327
VMIPS Malta
p328
sVhardware-long
p329
VMIPS Malta boards
p330
ss(Vbase
p331
Varm64
p332
tp333
(dp334
Vkernel-arch
p335
Varm64
p336
sVfeaturesets
p337
(lp338
Vnone
p339
ass(Vbase
p340
g114
tp341
(dp342
Vkernel-arch
p343
Vx86
p344
sVfeaturesets
p345
(lp346
Vnone
p347
aVrt
p348
asVcompiler
p349
Vgcc-4.9
p350
ss(Vbase
p351
g53
tp352
(dp353
Vkernel-arch
p354
Vmips
p355
sg161
(lp356
g99
ass(Vrelations
p357
g5
tp358
(dp359
Vheaders%gcc-4.9
p360
Vlinux-compiler-gcc-4.9-x86 (>= 3.16.51-3+deb8u2~), linux-kbuild-3.16 (>= 3.16.56-1)
p361
ss(Vbase
p362
tp363
(dp364
Varches
p365
(lp366
Valpha
p367
aVamd64
p368
aVarm64
p369
aVarmel
p370
aVarmhf
p371
aVhppa
p372
aVi386
p373
aVia64
p374
aVm68k
p375
aVmips
p376
aVmipsel
p377
aVmips64
p378
aVmips64el
p379
aVor1k
p380
aVpowerpc
p381
aVpowerpcspe
p382
aVppc64
p383
aVppc64el
p384
aVs390
p385
aVs390x
p386
aVsh4
p387
aVsparc
p388
aVsparc64
p389
aVx32
p390
asVfeaturesets
p391
(lp392
Vnone
p393
aVrt
p394
asVcompiler
p395
Vgcc-4.8
p396
ss(Vdescription
p397
Varmhf
p398
NVrpi
p399
tp400
(dp401
Vhardware
p402
VRaspberryPI
p403
sVhardware-long
p404
VRaspberry PI
p405
ss(Vbuild
p406
g114
tp407
(dp408
Vimage-file
p409
Varch/x86/boot/bzImage
p410
ss(Vdescription
p411
g114
NV686-pae
p412
tp413
(dp414
Vhardware
p415
Vmodern PCs
p416
sVparts
p417
(lp418
Vpae
p419
asVhardware-long
p420
VPCs with one or more processors supporting PAE
p421
ss(Vimage
p422
g137
NVr4k-ip22
p423
tp424
(dp425
Vconfigs
p426
(lp427
Vkernelarch-mips/config.r4k-ip22
p428
ass(Vrelations
p429
g130
tp430
(dp431
Vheaders%gcc-4.8
p432
Vlinux-compiler-gcc-4.8-s390
p433
ss(g97
g53
g99
tp434
(dp435
g102
I01
sg103
(lp436
Vsb1-bcm91250a
p437
aV4kc-malta
p438
aV5kc-malta
p439
aVloongson-2e
p440
aVloongson-2f
p441
aVloongson-3
p442
ass(Vdescription
p443
g226
NVsb1-bcm91250a
p444
tp445
(dp446
Vhardware
p447
VBCM91250A
p448
sVhardware-long
p449
VBroadcom BCM91250A systems (aka SWARM)
p450
ss(Vimage
p451
g53
NVloongson-2e
p452
tp453
(dp454
Vconfigs
p455
(lp456
Vkernelarch-mips/config.loongson-2e
p457
ass(Vdescription
p458
g36
tp459
(dp460
Vhardware
p461
V32-bit PowerPC with SPE (instead of AltiVec) with SMP support
p462
ss(Vdescription
p463
g73
NV5kc-malta
p464
tp465
(dp466
Vhardware
p467
VMIPS Malta
p468
sVhardware-long
p469
VMIPS Malta boards
p470
ss(Vrelations
p471
tp472
(dp473
Vgcc-4.9
p474
Vgcc-4.9 (>= 4.9.2-10+deb7u1), gcc-4.9 (<< 4.9.2-11)
p475
sVgcc-4.8
p476
Vgcc-4.8
p477
sVinitramfs-fallback
p478
Vlinux-initramfs-tool
p479
sVgcc-4.7
p480
Vgcc-4.7
p481
sVgcc-4.6
p482
Vgcc-4.6
p483
sVgcc-4.4
p484
Vgcc-4.4
p485
sVinitramfs-tools
p486
Vinitramfs-tools (>= 0.110~)
p487
ss(Vbuild
p488
Vm68k
p489
tp490
(dp491
Vimage-file
p492
Vvmlinux.gz
p493
ss(g97
g73
g99
tp494
(dp495
g102
I01
sg103
(lp496
Vsb1-bcm91250a
p497
aV5kc-malta
p498
aVloongson-3
p499
aVocteon
p500
ass(Vbuild
p501
g36
tp502
(dp503
Vimage-file
p504
Vvmlinux
p505
ss(Vdescription
p506
g235
NVpowerpc64le
p507
tp508
(dp509
Vhardware
p510
VLittle-endian 64-bit PowerPC
p511
ss(g97
g298
g99
tp512
(dp513
g102
I01
sg103
(lp514
Vsh7751r
p515
aVsh7785lcr
p516
ass(Vbuild
p517
Vhppa
p518
tp519
(dp520
Vimage-file
p521
Vvmlinux
p522
ss(Vbase
p523
g518
NVparisc64-smp
p524
tp525
(dp526
Voverride-host-type
p527
Vhppa64-linux-gnu
p528
sVcflags
p529
V-fno-cse-follow-jumps
p530
ss(Vbase
p531
g44
tp532
(dp533
Vkernel-arch
p534
Varm
p535
sg161
(lp536
g99
ass(Vbuild
p537
g332
tp538
(dp539
Vdebug-info
p540
I01
sVimage-file
p541
Varch/arm64/boot/Image
p542
ss(Vbase
p543
Vsparc
p544
tp545
(dp546
Vkernel-arch
p547
Vsparc
p548
sg161
(lp549
g99
ass(Vbase
p550
g36
tp551
(dp552
Vkernel-arch
p553
Vpowerpc
p554
sg161
(lp555
g99
ass(Vrelations
p556
g398
tp557
(dp558
Vheaders%gcc-4.8
p559
Vlinux-compiler-gcc-4.8-arm
p560
ss(Vdescription
p561
g53
NVloongson-3
p562
tp563
(dp564
Vhardware
p565
VLoongson 3A/3B
p566
sVhardware-long
p567
VLoongson 3A or 3B based systems (e.g. from Loongson or Lemote)
p568
ss(Vabi
p569
Ng18
tp570
(dp571
Vignore-changes
p572
(lp573
V*
p574
ass(g97
g130
g99
tp575
(dp576
g102
I01
sg103
(lp577
Vs390x
p578
ass(Vbuild
p579
g137
tp580
(dp581
Vimage-file
p582
Vvmlinux
p583
ss(g97
Vs390x
p584
g99
tp585
(dp586
g102
I01
sg103
(lp587
Vs390x
p588
ass(Vbase
p589
g137
tp590
(dp591
Vkernel-arch
p592
Vmips
p593
sg161
(lp594
g99
ass(Vbuild
p595
g5
tp596
(dp597
Vdebug-info
p598
I01
sVimage-file
p599
Varch/x86/boot/bzImage
p600
ss(Vbuild
p601
g544
tp602
(dp603
Vimage-file
p604
Varch/sparc/boot/zImage
p605
ss(Vimage
p606
g53
tp607
(dp608
Vinstall-stem
p609
Vvmlinux
p610
ss(Vdescription
p611
Vsparc64
p612
NVsparc64
p613
tp614
(dp615
Vhardware
p616
Vuniprocessor 64-bit UltraSPARC
p617
ss(Vbuild
p618
g82
tp619
(dp620
Vimage-file
p621
Vvmlinux
p622
ss(Vdescription
p623
g137
NV5kc-malta
p624
tp625
(dp626
Vhardware
p627
VMIPS Malta (64-bit)
p628
sVhardware-long
p629
VMIPS Malta boards (64-bit)
p630
ss(Vbase
p631
g73
tp632
(dp633
Vkernel-arch
p634
Vmips
p635
sg161
(lp636
g99
ass(Vbuild
p637
g53
tp638
(dp639
Vimage-file
p640
Vvmlinux
p641
ss(Vbase
p642
g226
tp643
(dp644
Vkernel-arch
p645
Vmips
p646
sg161
(lp647
g99
ass(Vimage
p648
g53
NVloongson-2f
p649
tp650
(dp651
Vconfigs
p652
(lp653
Vkernelarch-mips/config.loongson-2f
p654
asVrecommends
p655
Vlibc6-loongson2f
p656
ss(Vbase
p657
g5
tp658
(dp659
Vkernel-arch
p660
Vx86
p661
sVfeaturesets
p662
(lp663
Vnone
p664
aVrt
p665
asVcompiler
p666
Vgcc-4.9
p667
ss(Vbase
p668
g62
tp669
(dp670
Vkernel-arch
p671
Via64
p672
sg161
(lp673
g99
asVcompiler
p674
Vgcc-4.6
p675
ss(Vdescription
p676
g53
NV5kc-malta
p677
tp678
(dp679
Vhardware
p680
VMIPS Malta (64-bit)
p681
sVhardware-long
p682
VMIPS Malta boards (64-bit)
p683
ss(Vbase
p684
g489
tp685
(dp686
Vkernel-arch
p687
Vm68k
p688
sg161
(lp689
g99
asVcflags
p690
V-ffreestanding
p691
sVcompiler
p692
Vgcc-4.8
p693
ss(Vdescription
p694
g73
NVocteon
p695
tp696
(dp697
Vhardware
p698
VOcteon
p699
sVhardware-long
p700
VCavium Networks Octeon
p701
ss(Vabi
p702
g44
NVkirkwood
p703
tp704
(dp705
Vignore-changes
p706
(lp707
Vzs_create_pool
p708
aVzs_destroy_pool
p709
aVzs_free
p710
aVzs_get_total_size_bytes
p711
aVzs_malloc
p712
aVzs_map_object
p713
aVzs_unmap_object
p714
aVfips_enabled
p715
aVdcookie_register
p716
aVdcookie_unregister
p717
aVget_dcookie
p718
aVprof_on
p719
aVprofile_event_register
p720
aVprofile_event_unregister
p721
aVprofile_hits
p722
aVring_buffer_swap_cpu
p723
aVtask_handoff_register
p724
aVtask_handoff_unregister
p725
aVdisable_kprobe
p726
aVenable_kprobe
p727
aVjprobe_return
p728
aVprofile_hits
p729
aVregister_jprobe
p730
aVregister_jprobes
p731
aVregister_kprobe
p732
aVregister_kprobes
p733
aVregister_kretprobe
p734
aVregister_kretprobes
p735
aVunregister_jprobe
p736
aVunregister_jprobes
p737
aVunregister_kprobe
p738
aVunregister_kprobes
p739
aVunregister_kretprobe
p740
aVunregister_kretprobes
p741
ass(Vbase
p742
g130
tp743
(dp744
Vkernel-arch
p745
Vs390
p746
sg161
(lp747
g99
ass(g97
g44
g99
tp748
(dp749
g102
I01
sg103
(lp750
Vixp4xx
p751
aVkirkwood
p752
aVorion5x
p753
aVversatile
p754
ass(Vdescription
p755
g62
NVitanium
p756
tp757
(dp758
Vhardware
p759
VItanium
p760
ss(Vdescription
p761
g114
tp762
(dp763
Vpart-long-pae
p764
VThis kernel requires PAE (Physical Address Extension).\u000aThis feature is supported by the Intel Pentium Pro/II/III/4/4M/D, Xeon,\u000aCore and Atom; AMD Geode NX, Athlon (K7), Duron, Opteron, Sempron,\u000aTurion or Phenom; Transmeta Efficeon; VIA C7; and some other processors.
p765
ss(Vdescription
p766
g82
NVpowerpc
p767
tp768
(dp769
Vhardware
p770
Vuniprocessor 32-bit PowerPC
p771
ss(Vimage
p772
g53
NVsb1-bcm91250a
p773
tp774
(dp775
Vconfigs
p776
(lp777
Vkernelarch-mips/config.sb1-bcm91250a
p778
ass(Vimage
p779
g53
NV4kc-malta
p780
tp781
(dp782
Vconfigs
p783
(lp784
Vkernelarch-mips/config.4kc-malta
p785
ass(Vimage
p786
g612
NVsparc64-smp
p787
tp788
(dp789
Vconfigs
p790
(lp791
Vkernelarch-sparc/config-smp
p792
ass(Vbuild
p793
g73
tp794
(dp795
Vimage-file
p796
Vvmlinux
p797
ss(Vxen
p798
g5
g29
Vamd64
p799
tp800
(dp801
Vflavours
p802
(lp803
Vamd64
p804
ass(Vimage
p805
g44
tp806
(dp807
Vsuggests
p808
Vfdutils
p809
sVconfigs
p810
(lp811
Vkernelarch-arm/config
p812
aVarmel/config
p813
asVinstall-stem
p814
Vvmlinuz
p815
ss(Vimage
p816
g130
tp817
(dp818
Vinstall-stem
p819
Vvmlinuz
p820
sVconfigs
p821
(lp822
sVbootloaders
p823
(lp824
Vs390-tools
p825
ass(Vimage
p826
g584
NVs390x
p827
tp828
(dp829
Vconfigs
p830
(lp831
Vkernelarch-s390/config-arch-64
p832
ass(Vrelations
p833
g44
tp834
(dp835
Vheaders%gcc-4.8
p836
Vlinux-compiler-gcc-4.8-arm
p837
ss(Vimage
p838
g518
tp839
(dp840
Vsuggests
p841
Vpalo
p842
sVinstall-stem
p843
Vvmlinux
p844
ss(Vbuild
p845
g398
NVrpi
p846
tp847
(dp848
Vimage-file
p849
Varch/arm/boot/zImage
p850
ss(Vimage
p851
g73
NVloongson-3
p852
tp853
(dp854
Vconfigs
p855
(lp856
Vkernelarch-mips/config.loongson-3
p857
ass(g97
g226
g99
tp858
(dp859
g102
I01
sg103
(lp860
Vsb1-bcm91250a
p861
aV5kc-malta
p862
aVocteon
p863
ass(Vrelations
p864
g518
tp865
(dp866
Vgcc-4.8
p867
Vgcc-4.8, binutils-hppa64, gcc-4.8-hppa64
p868
ss(Vdescription
p869
g44
NVorion5x
p870
tp871
(dp872
Vhardware
p873
VMarvell Orion
p874
sVhardware-long
p875
VMarvell Orion 5181, 5182 and 5281 based systems (QNAP TS-109/TS-209, etc)
p876
ss(Vdescription
p877
g44
NVixp4xx
p878
tp879
(dp880
Vhardware
p881
VIXP4xx
p882
sVhardware-long
p883
VIXP4xx based systems (Linksys NSLU2, etc)
p884
ss(Vdescription
p885
g156
NValpha-smp
p886
tp887
(dp888
Vhardware
p889
VAlpha SMP
p890
sVhardware-long
p891
VDEC Alpha SMP systems with extended kernel start address (Wildfire, Titan, Marvel)
p892
ss(Vimage
p893
g5
NVamd64
p894
tp895
(dp896
Vconfigs
p897
(lp898
Vkernelarch-x86/config-arch-64
p899
ass(Vimage
p900
g98
tp901
(dp902
Vsuggests
p903
Vmkvmlinuz
p904
sVconfigs
p905
(lp906
sVinstall-stem
p907
Vvmlinux
p908
ss(Vdescription
p909
g114
NV586
p910
tp911
(dp912
Vhardware
p913
Volder PCs
p914
sVparts
p915
(lp916
Vup
p917
asVhardware-long
p918
VPCs with a single processor not supporting PAE
p919
ss(g97
g518
g99
tp920
(dp921
g102
I01
sg103
(lp922
Vparisc
p923
aVparisc64-smp
p924
ass(Vimage
p925
g156
tp926
(dp927
Vsuggests
p928
Vaboot, fdutils
p929
sVinstall-stem
p930
Vvmlinuz
p931
ss(Vimage
p932
g137
NVsb1-bcm91250a
p933
tp934
(dp935
Vconfigs
p936
(lp937
Vkernelarch-mips/config.sb1-bcm91250a
p938
ass(Vbase
p939
g612
tp940
(dp941
Vkernel-arch
p942
Vsparc
p943
sg161
(lp944
g99
ass(Vimage
p945
g98
NVpowerpc64
p946
tp947
(dp948
Vconfigs
p949
(lp950
Vkernelarch-powerpc/config-arch-64
p951
aVkernelarch-powerpc/config-arch-64-be
p952
ass(Vbase
p953
Vor1k
p954
tp955
(dp956
Vkernel-arch
p957
Vopenrisc
p958
sVfeaturesets
p959
(lp960
ss(S'version'
p961
tp962
(dp963
S'abiname'
p964
V3.16.0-6
p965
sS'source'
p966
V3.16.57-2+rpi1
p967
sS'abiname_base'
p968
S'3.16.0'
p969
sS'upstream'
p970
S'3.16'
p971
ss(Vdescription
p972
g82
NVpowerpc-smp
p973
tp974
(dp975
Vhardware
p976
Vmultiprocessor 32-bit PowerPC
p977
ss(Vbase
p978
g584
tp979
(dp980
Vkernel-arch
p981
Vs390
p982
sg161
(lp983
g99
ass(Vdescription
p984
g398
NVarmmp
p985
tp986
(dp987
Vhardware
p988
VARMv7 multiplatform compatible SoCs
p989
sVhardware-long
p990
VARMv7 multiplatform kernel. See\u000ahttps://wiki.debian.org/DebianKernel/ARMMP for details of supported\u000aplatforms
p991
ss(Vdescription
p992
g62
NVmckinley
p993
tp994
(dp995
Vhardware
p996
VItanium II
p997
ss(Vdescription
p998
g612
NVsparc64-smp
p999
tp1000
(dp1001
Vhardware
p1002
Vmultiprocessor 64-bit UltraSPARC
p1003
ss(Vimage
p1004
g137
tp1005
(dp1006
Vinstall-stem
p1007
Vvmlinux
p1008
ss(Vimage
p1009
g114
tp1010
(dp1011
Vinstall-stem
p1012
Vvmlinuz
p1013
sVconfigs
p1014
(lp1015
sVbootloaders
p1016
(lp1017
Vgrub-pc
p1018
aVextlinux
p1019
ass(g97
g544
g99
tp1020
(dp1021
g102
I01
sg103
(lp1022
Vsparc64
p1023
aVsparc64-smp
p1024
ass(Vrelations
p1025
g82
tp1026
(dp1027
Vgcc-4.8
p1028
Vgcc-4.8 (>= 4.8.2-21)
p1029
ss(g97
g156
g99
tp1030
(dp1031
g102
I01
sg103
(lp1032
Valpha-generic
p1033
aValpha-smp
p1034
ass(Vdescription
p1035
g114
g148
V686-pae
p1036
tp1037
(dp1038
Vparts
p1039
(lp1040
Vxen
p1041
ass(Vbase
p1042
Vx32
p1043
tp1044
(dp1045
Vkernel-arch
p1046
Vx86
p1047
sVfeaturesets
p1048
(lp1049
ss(Vbase
p1050
g98
tp1051
(dp1052
Vkernel-arch
p1053
Vpowerpc
p1054
sg161
(lp1055
g99
ass(Vdescription
p1056
g544
NVsparc64
p1057
tp1058
(dp1059
Vhardware
p1060
Vuniprocessor 64-bit UltraSPARC
p1061
ss(Vimage
p1062
g44
NVorion5x
p1063
tp1064
(dp1065
Vcheck-size
p1066
V1572792
p1067
sVconfigs
p1068
(lp1069
Varmel/config-reduced
p1070
aVarmel/config.orion5x
p1071
asVrecommends
p1072
Vu-boot-tools
p1073
ss(Vimage
p1074
g226
NVsb1-bcm91250a
p1075
tp1076
(dp1077
Vconfigs
p1078
(lp1079
Vkernelarch-mips/config.sb1-bcm91250a
p1080
ass(Vdescription
p1081
g544
NVsparc64-smp
p1082
tp1083
(dp1084
Vhardware
p1085
Vmultiprocessor 64-bit UltraSPARC
p1086
ss(Vbase
p1087
g518
tp1088
(dp1089
Vkernel-arch
p1090
Vparisc
p1091
sg161
(lp1092
g99
ass(Vbuild
p1093
g156
tp1094
(dp1095
Vimage-file
p1096
Varch/alpha/boot/vmlinux.gz
p1097
ss(Vimage
p1098
g82
NVpowerpc64
p1099
tp1100
(dp1101
Vconfigs
p1102
(lp1103
Vkernelarch-powerpc/config-arch-64
p1104
aVkernelarch-powerpc/config-arch-64-be
p1105
ass(Vdescription
p1106
g5
NVamd64
p1107
tp1108
(dp1109
Vhardware
p1110
V64-bit PCs
p1111
sVhardware-long
p1112
VPCs with AMD64, Intel 64 or VIA Nano processors
p1113
ss(Vimage
p1114
g226
tp1115
(dp1116
Vinstall-stem
p1117
Vvmlinux
p1118
ss(Vimage
p1119
g137
NVr5k-ip32
p1120
tp1121
(dp1122
Vconfigs
p1123
(lp1124
Vkernelarch-mips/config.r5k-ip32
p1125
ass(Vimage
p1126
g398
NVarmmp-lpae
p1127
tp1128
(dp1129
Vconfigs
p1130
(lp1131
Varmhf/config.armmp
p1132
aVarmhf/config.lpae
p1133
ass(Vdescription
p1134
g518
NVparisc
p1135
tp1136
(dp1137
Vhardware
p1138
V32-bit PA-RISC
p1139
sVhardware-long
p1140
VHP PA-RISC 32-bit systems with max 4 GB RAM
p1141
ss(g97
g62
g99
tp1142
(dp1143
g102
I01
sg103
(lp1144
Vitanium
p1145
aVmckinley
p1146
ass(Vbuild
p1147
g298
tp1148
(dp1149
Vimage-file
p1150
Varch/sh/boot/zImage
p1151
ss(Vimage
p1152
g489
tp1153
(dp1154
Vsuggests
p1155
Vvmelilo, fdutils
p1156
sVinstall-stem
p1157
Vvmlinuz
p1158
ss(Vdescription
p1159
g398
NVarmmp-lpae
p1160
tp1161
(dp1162
Vhardware
p1163
VARMv7 multiplatform compatible SoCs supporting LPAE
p1164
sVhardware-long
p1165
VARMv7 multiplatform kernel supporting LPAE. See\u000ahttps://wiki.debian.org/DebianKernel/ARMMP for details of supported\u000aplatforms.
p1166
ss(Vbase
p1167
g332
Vnone
p1168
tp1169
(dp1170
Vflavours
p1171
(lp1172
Varm64
p1173
ass(Vimage
p1174
g226
NV5kc-malta
p1175
tp1176
(dp1177
Vconfigs
p1178
(lp1179
Vkernelarch-mips/config.5kc-malta
p1180
ass(Vbuild
p1181
g226
tp1182
(dp1183
Vimage-file
p1184
Vvmlinux
p1185
ss(Vbuild
p1186
g398
tp1187
(dp1188
Vimage-file
p1189
Varch/arm/boot/zImage
p1190
ss(Vdescription
p1191
g53
NV4kc-malta
p1192
tp1193
(dp1194
Vhardware
p1195
VMIPS Malta
p1196
sVhardware-long
p1197
VMIPS Malta boards
p1198
ss(Vbuild
p1199
g62
tp1200
(dp1201
Vimage-file
p1202
Vvmlinux.gz
p1203
ss(Vbase
p1204
g398
tp1205
(dp1206
Vflavours
p1207
(lp1208
sVkernel-arch
p1209
Varm
p1210
ss(g97
g612
g99
tp1211
(dp1212
g102
I01
sg103
(lp1213
Vsparc64
p1214
aVsparc64-smp
p1215
ass(Vdescription
p1216
g137
NVsb1-bcm91250a
p1217
tp1218
(dp1219
Vhardware
p1220
VBCM91250A
p1221
sVhardware-long
p1222
VBroadcom BCM91250A systems (aka SWARM)
p1223
ss(Vimage
p1224
g298
tp1225
(dp1226
Vsuggests
p1227
Vfdutils
p1228
sVinstall-stem
p1229
Vvmlinuz
p1230
ss(Vbase
p1231
g82
tp1232
(dp1233
Vkernel-arch
p1234
Vpowerpc
p1235
sg161
(lp1236
g99
ass(Vbase
p1237
NVrt
p1238
tp1239
(dp1240
Venabled
p1241
I00
ss(Vbuild
p1242
g584
tp1243
(dp1244
Vimage-file
p1245
Varch/s390/boot/image
p1246
ss(Vdescription
p1247
g137
NVr4k-ip22
p1248
tp1249
(dp1250
Vhardware
p1251
VSGI IP22
p1252
sVhardware-long
p1253
VSGI IP22 systems (Indy, Indigo2)
p1254
ss(Vbase
p1255
g298
tp1256
(dp1257
Vkernel-arch
p1258
Vsh
p1259
sg161
(lp1260
g99
ass(Vdescription
p1261
g130
NVs390x
p1262
tp1263
(dp1264
Vhardware
p1265
VIBM zSeries
p1266
ss(Vimage
p1267
g544
tp1268
(dp1269
Vsuggests
p1270
Vsilo, fdutils
p1271
sVconfigs
p1272
(lp1273
sVinstall-stem
p1274
Vvmlinuz
p1275
ss(Vdescription
p1276
tp1277
(dp1278
Vpart-long-up
p1279
VThis kernel is not suitable for SMP (multi-processor,\u000amulti-core or hyper-threaded) systems.
p1280
sVpart-long-xen
p1281
VThis kernel also runs on a Xen hypervisor.\u000aIt supports both privileged (dom0) and unprivileged (domU) operation.
p1282
ss(Vbuild
p1283
g612
tp1284
(dp1285
Vimage-file
p1286
Varch/sparc/boot/zImage
p1287
ss(Vdescription
p1288
g332
NVarm64
p1289
tp1290
(dp1291
Vhardware
p1292
V64-bit ARMv8 machines
p1293
ss(Vimage
p1294
g53
NV5kc-malta
p1295
tp1296
(dp1297
Vconfigs
p1298
(lp1299
Vkernelarch-mips/config.5kc-malta
p1300
ass(Vbuild
p1301
g114
NV686-pae
p1302
tp1303
(dp1304
Vdebug-info
p1305
I01
ss(Vbuild
p1306
g584
NVs390x
p1307
tp1308
(dp1309
Vdebug-info
p1310
I01
ss(Vimage
p1311
g612
tp1312
(dp1313
Vsuggests
p1314
Vsilo, fdutils
p1315
sVconfigs
p1316
(lp1317
sVinstall-stem
p1318
Vvmlinuz
p1319
ss(Vrelations
p1320
g584
tp1321
(dp1322
Vheaders%gcc-4.8
p1323
Vlinux-compiler-gcc-4.8-s390
p1324
ss(Vrelations
p1325
g98
tp1326
(dp1327
Vgcc-4.8
p1328
Vgcc-4.8 (>= 4.8.2-21)
p1329
ss(Vdescription
p1330
g137
NVr5k-ip32
p1331
tp1332
(dp1333
Vhardware
p1334
VSGI IP32
p1335
sVhardware-long
p1336
VSGI IP32 systems (O2)
p1337
ss(Vbuild
p1338
g130
NVs390x
p1339
tp1340
(dp1341
Vdebug-info
p1342
I01
ss(Vimage
p1343
g544
NVsparc64-smp
p1344
tp1345
(dp1346
Vconfigs
p1347
(lp1348
Vkernelarch-sparc/config-smp
p1349
ass(Vimage
p1350
g53
NVloongson-3
p1351
tp1352
(dp1353
Vconfigs
p1354
(lp1355
Vkernelarch-mips/config.loongson-3
p1356
ass(Vbuild
p1357
g130
tp1358
(dp1359
Vimage-file
p1360
Varch/s390/boot/image
p1361
ss(Vdescription
p1362
g489
NVm68k
p1363
tp1364
(dp1365
Vhardware
p1366
VMotorola MC68020+ family
p1367
ss(Vimage
p1368
g398
tp1369
(dp1370
Vsuggests
p1371
Vfdutils
p1372
sVconfigs
p1373
(lp1374
Vkernelarch-arm/config
p1375
aVarmhf/config
p1376
asVinstall-stem
p1377
Vvmlinuz
p1378
ss(Vabi
p1379
tp1380
(dp1381
Vabiname
p1382
V6
p1383
sVignore-changes
p1384
(lp1385
Vmodule:arch/x86/kvm/kvm
p1386
aVmodule:arch/powerpc/kvm/kvm
p1387
aVmodule:drivers/edac/edac_mce_amd
p1388
aVmodule:drivers/md/dm-snapshot
p1389
aVmodule:drivers/mmc/host/*
p1390
aVmodule:drivers/misc/mei/*
p1391
aVmodule:drivers/mtd/spi-nor/spi-nor
p1392
aVmodule:drivers/net/can/can-dev
p1393
aVmodule:drivers/net/ethernet/**
p1394
aVmodule:drivers/net/wireless/**
p1395
aVmodule:drivers/s390/net/qeth
p1396
aVmodule:drivers/s390/net/qeth*
p1397
aVmodule:drivers/scsi/cxgbi/*
p1398
aVmodule:drivers/scsi/libiscs*
p1399
aVmodule:drivers/scsi/qla2xxx/qla2xxx
p1400
aVmodule:drivers/staging/usbip/*
p1401
aVmodule:drivers/target/iscsi/iscsi_target_mod
p1402
aVmodule:drivers/target/target_core_mod
p1403
aVmodule:drivers/usb/musb/*
p1404
aVmodule:fs/nfs/nfs
p1405
aVmodule:net/ceph/libceph
p1406
aVmodule:net/l2tp/*
p1407
aVmodule:net/rds/rds
p1408
aVmodule:sound/firewire/snd-firewire-lib
p1409
aVmodule:sound/i2c/other/snd-ak4113
p1410
aVmodule:sound/i2c/other/snd-ak4114
p1411
aVmodule:sound/pci/emu10k1/*
p1412
aVazx_alloc_cmd_io
p1413
aVazx_free_cmd_io
p1414
aVazx_get_response
p1415
aVazx_init_cmd_io
p1416
aVazx_send_cmd
p1417
aVcan_rx_register
p1418
aVcpuidle_*
p1419
aVinet_add_protocol
p1420
aVinet_del_protocol
p1421
aVinet_frag_*
p1422
aVinet_frags_*
p1423
aVinjectm
p1424
aVkvm_async_pf_task_wait
p1425
aVkvmppc_*
p1426
aVmusb_*
p1427
aVperf_trace_*
p1428
aVsdhci_*
p1429
aVtcp_make_synack
p1430
aVtcp_parse_options
p1431
aVtcp_try_fastopen
p1432
aV__add_pages
p1433
aV__fib_lookup
p1434
aV__remove_pages
p1435
aVfib_table_lookup
p1436
aVnf_register_queue_handler
p1437
aVof_device_is_stdout_path
p1438
aVmodule:sound/soc/*
p1439
aVblk_rq_check_limits
p1440
aVclk_divider_ro_ops
p1441
aVtick_nohz_idle_enter
p1442
aVtick_nohz_idle_exit
p1443
aVskb_copy_and_csum_datagram_iovec
p1444
aVmodule:net/dccp/dccp
p1445
aVfl6_*
p1446
aVinet_sk_diag_fill
p1447
aVip6_append_data
p1448
aVip6_datagram_send_ctl
p1449
aVip6_xmit
p1450
aVipv6_dup_options
p1451
aVipv6_fixup_options
p1452
aVipv6_push_nfrag_opts
p1453
aVtcp_cong_avoid_ai
p1454
aVtcp_slow_start
p1455
aV__scm_destroy
p1456
aV__scm_send
p1457
aVscm_detach_fds
p1458
aVscm_fp_dup
p1459
aVaf_alg_*
p1460
aVxt_compat_match_from_user
p1461
aVefivar_validate
p1462
aVzpci_disable_device
p1463
aVzpci_enable_device
p1464
aVzpci_stop_device
p1465
aVfsnotify_*_group
p1466
aVfsnotify_*_mark
p1467
aVmodule:drivers/infiniband/**
p1468
ass(Vimage
p1469
g114
NVamd64
p1470
tp1471
(dp1472
Vconfigs
p1473
(lp1474
Vkernelarch-x86/config-arch-64
p1475
asVrecommends
p1476
Vlibc6-i686
p1477
ss(Vdescription
p1478
g584
NVs390x
p1479
tp1480
(dp1481
Vhardware
p1482
VIBM zSeries
p1483
ss(g97
g36
g99
tp1484
(dp1485
g102
I01
sg103
(lp1486
Vpowerpcspe
p1487
ass(Vdescription
p1488
g518
NVparisc64-smp
p1489
tp1490
(dp1491
Vhardware
p1492
Vmultiprocessor 64-bit PA-RISC
p1493
sVhardware-long
p1494
VHP PA-RISC 64-bit SMP systems with support for more than 4 GB RAM
p1495
ss(g97
g489
g99
tp1496
(dp1497
g102
I01
sg103
(lp1498
Vm68k
p1499
ass(Vdescription
p1500
g544
NVsparc32
p1501
tp1502
(dp1503
Vhardware
p1504
Vuniprocessor sparc32 (sun4m)
p1505
ss(Vbase
p1506
g114
g148
tp1507
(dp1508
Vflavours
p1509
(lp1510
V586
p1511
aV686-pae
p1512
aVamd64
p1513
ass(Vimage
p1514
g226
NVocteon
p1515
tp1516
(dp1517
Vconfigs
p1518
(lp1519
Vkernelarch-mips/config.octeon
p1520
ass(Vimage
p1521
g137
NV5kc-malta
p1522
tp1523
(dp1524
Vconfigs
p1525
(lp1526
Vkernelarch-mips/config.5kc-malta
p1527
ass(Vdescription
p1528
g73
NVloongson-3
p1529
tp1530
(dp1531
Vhardware
p1532
VLoongson 3A/3B
p1533
sVhardware-long
p1534
VLoongson 3A or 3B based systems (e.g. from Loongson or Lemote)
p1535
ss(Vbuild
p1536
g44
tp1537
(dp1538
Vimage-file
p1539
Varch/arm/boot/zImage
p1540
ss(g97
g82
g99
tp1541
(dp1542
g102
I01
sg103
(lp1543
Vpowerpc
p1544
aVpowerpc-smp
p1545
aVpowerpc64
p1546
ass(Vimage
p1547
g73
tp1548
(dp1549
Vinstall-stem
p1550
Vvmlinux
p1551
ss(Vimage
p1552
g612
NVsparc64
p1553
tp1554
(dp1555
Vconfigs
p1556
(lp1557
Vkernelarch-sparc/config-up
p1558
ass(Vbase
p1559
g235
tp1560
(dp1561
Vkernel-arch
p1562
Vpowerpc
p1563
sg161
(lp1564
g99
ass(Vdescription
p1565
g298
NVsh7751r
p1566
tp1567
(dp1568
Vhardware
p1569
Vsh7751r
p1570
sVhardware-long
p1571
VRenesas SH7751R R2D plus board
p1572
ss(Vdescription
p1573
g156
NValpha-generic
p1574
tp1575
(dp1576
Vhardware
p1577
VAlpha
p1578
sVhardware-long
p1579
VDEC Alpha systems with extended kernel start address (Wildfire, Titan, Marvel)
p1580
ss(Vdescription
p1581
g53
NVloongson-2f
p1582
tp1583
(dp1584
Vhardware
p1585
VLoongson 2F
p1586
sVhardware-long
p1587
VLemote Loongson 2F systems
p1588
ss(Vimage
p1589
tp1590
(dp1591
Vinitramfs-generators
p1592
(lp1593
Vinitramfs-tools
p1594
aVinitramfs-fallback
p1595
asVtype
p1596
Vplain
p1597
ss(Vabi
p1598
g44
NVixp4xx
p1599
tp1600
(dp1601
Vignore-changes
p1602
(lp1603
V__ring_buffer_alloc
p1604
aVdcookie_register
p1605
aVdcookie_unregister
p1606
aVget_dcookie
p1607
aVprof_on
p1608
aVprofile_event_register
p1609
aVprofile_event_unregister
p1610
aVprofile_hits
p1611
aVring_buffer_alloc_read_page
p1612
aVring_buffer_bytes_cpu
p1613
aVring_buffer_change_overwrite
p1614
aVring_buffer_commit_overrun_cpu
p1615
aVring_buffer_consume
p1616
aVring_buffer_discard_commit
p1617
aVring_buffer_dropped_events_cpu
p1618
aVring_buffer_empty
p1619
aVring_buffer_empty_cpu
p1620
aVring_buffer_entries
p1621
aVring_buffer_entries_cpu
p1622
aVring_buffer_event_data
p1623
aVring_buffer_event_length
p1624
aVring_buffer_free
p1625
aVring_buffer_free_read_page
p1626
aVring_buffer_iter_empty
p1627
aVring_buffer_iter_peek
p1628
aVring_buffer_iter_reset
p1629
aVring_buffer_lock_reserve
p1630
aVring_buffer_normalize_time_stamp
p1631
aVring_buffer_oldest_event_ts
p1632
aVring_buffer_overrun_cpu
p1633
aVring_buffer_overruns
p1634
aVring_buffer_peek
p1635
aVring_buffer_read
p1636
aVring_buffer_read_events_cpu
p1637
aVring_buffer_read_finish
p1638
aVring_buffer_read_page
p1639
aVring_buffer_read_prepare
p1640
aVring_buffer_read_prepare_sync
p1641
aVring_buffer_read_start
p1642
aVring_buffer_record_disable
p1643
aVring_buffer_record_disable_cpu
p1644
aVring_buffer_record_enable
p1645
aVring_buffer_record_enable_cpu
p1646
aVring_buffer_record_off
p1647
aVring_buffer_record_on
p1648
aVring_buffer_reset
p1649
aVring_buffer_reset_cpu
p1650
aVring_buffer_resize
p1651
aVring_buffer_size
p1652
aVring_buffer_swap_cpu
p1653
aVring_buffer_time_stamp
p1654
aVring_buffer_unlock_commit
p1655
aVring_buffer_write
p1656
aVtask_handoff_register
p1657
aVtask_handoff_unregister
p1658
aVtrace_clock_local
p1659
ass(Vdescription
p1660
g53
NVloongson-2e
p1661
tp1662
(dp1663
Vhardware
p1664
VLoongson 2E
p1665
sVhardware-long
p1666
VLemote Loongson 2E systems
p1667
ss(Vimage
p1668
g137
NVocteon
p1669
tp1670
(dp1671
Vconfigs
p1672
(lp1673
Vkernelarch-mips/config.octeon
p1674
ass(Vimage
p1675
g544
NVsparc32
p1676
tp1677
(dp1678
Vimage-postproc
p1679
Vsparc32-image-postproc
p1680
ss(Vdescription
p1681
g137
NVocteon
p1682
tp1683
(dp1684
Vhardware
p1685
VOcteon
p1686
sVhardware-long
p1687
VCavium Networks Octeon
p1688
ss(Vdescription
p1689
g98
NVpowerpc64
p1690
tp1691
(dp1692
Vhardware
p1693
V64-bit PowerPC
p1694
ss(Vdescription
p1695
g44
NVversatile
p1696
tp1697
(dp1698
Vhardware
p1699
VVersatile
p1700
sVhardware-long
p1701
VVersatile systems (PB, AB, Qemu)
p1702
ss(Vimage
p1703
g332
NVarm64
p1704
tp1705
(dp1706
s(Vimage
p1707
g298
NVsh7785lcr
p1708
tp1709
(dp1710
Vcheck-size
p1711
V4194304
p1712
sVrecommends
p1713
Vu-boot-tools
p1714
ss(Vimage
p1715
g584
tp1716
(dp1717
Vinstall-stem
p1718
Vvmlinuz
p1719
sVconfigs
p1720
(lp1721
sVbootloaders
p1722
(lp1723
Vs390-tools
p1724
ass(Vimage
p1725
g332
tp1726
(dp1727
Vinstall-stem
p1728
Vvmlinuz
p1729
ss(Vdescription
p1730
g114
NVamd64
p1731
tp1732
(dp1733
Vhardware
p1734
V64-bit PCs
p1735
sVparts
p1736
(lp1737
Vxen
p1738
asVhardware-long
p1739
VPCs with AMD64, Intel 64 or VIA Nano processors
p1740
ss(Vdescription
p1741
g82
NVpowerpc64
p1742
tp1743
(dp1744
Vhardware
p1745
V64-bit PowerPC
p1746
ss(Vimage
p1747
g44
NVixp4xx
p1748
tp1749
(dp1750
Vcheck-size
p1751
V1441760
p1752
sVconfigs
p1753
(lp1754
Varmel/config-reduced
p1755
aVarmel/config.ixp4xx
p1756
ass(Vimage
p1757
g114
NV686-pae
p1758
tp1759
(dp1760
Vconfigs
p1761
(lp1762
Vkernelarch-x86/config-arch-32
p1763
aVi386/config.686-pae
p1764
asVrecommends
p1765
Vlibc6-i686
p1766
ss(Vdescription
p1767
g137
NV4kc-malta
p1768
tp1769
(dp1770
Vhardware
p1771
VMIPS Malta
p1772
sVhardware-long
p1773
VMIPS Malta boards
p1774
ss(g97
g235
g99
tp1775
(dp1776
g102
I01
sg103
(lp1777
Vpowerpc64le
p1778
ass(Vimage
p1779
g544
NVsparc64
p1780
tp1781
(dp1782
Vconfigs
p1783
(lp1784
Vkernelarch-sparc/config-up
p1785
asstp1786
Rp1787
.