ccopy_reg
_reconstructor
p0
(cdebian_linux.config
ConfigCore
p1
c__builtin__
dict
p2
(dp3
(S'image'
p4
S'amd64'
p5
tp6
(dp7
S'install-stem'
p8
S'vmlinuz'
p9
sS'configs'
p10
(lp11
sS'bootloaders'
p12
(lp13
S'grub-pc'
p14
aS'grub-efi'
p15
aS'extlinux'
p16
ass(S'description'
p17
NS'rt'
p18
tp19
(dp20
S'part-long-rt'
p21
S'This kernel includes the PREEMPT_RT realtime patch set.'
p22
sS'parts'
p23
(lp24
S'rt'
p25
asS'part-short-rt'
p26
S'PREEMPT_RT'
p27
ss(S'description'
p28
S'ia64'
p29
NS'itanium'
p30
tp31
(dp32
S'hardware'
p33
S'Itanium'
p34
ss(S'base'
p35
g5
S'none'
p36
tp37
(dp38
S'flavours'
p39
(lp40
S'amd64'
p41
ass(S'description'
p42
S'mips64el'
p43
NS'octeon'
p44
tp45
(dp46
S'hardware'
p47
S'Octeon'
p48
sS'hardware-long'
p49
S'Cavium Networks Octeon'
p50
ss(S'description'
p51
S'armel'
p52
NS'kirkwood'
p53
tp54
(dp55
S'hardware'
p56
S'Marvell Kirkwood'
p57
sS'hardware-long'
p58
S'Marvell Kirkwood based systems (SheevaPlug, QNAP TS-119/TS-219, etc)'
p59
ss(S'description'
p60
S'mipsel'
p61
NS'sb1-bcm91250a'
p62
tp63
(dp64
S'hardware'
p65
S'BCM91250A'
p66
sS'hardware-long'
p67
S'Broadcom BCM91250A systems (aka SWARM)'
p68
ss(S'image'
p69
g29
tp70
(dp71
S'suggests'
p72
S'fdutils'
p73
sS'bootloaders'
p74
(lp75
S'elilo'
p76
asS'install-stem'
p77
S'vmlinuz'
p78
ss(S'description'
p79
g43
NS'sb1-bcm91250a'
p80
tp81
(dp82
S'hardware'
p83
S'BCM91250A'
p84
sS'hardware-long'
p85
S'Broadcom BCM91250A systems (aka SWARM)'
p86
ss(S'image'
p87
S'powerpc'
p88
NS'powerpc-smp'
p89
tp90
(dp91
S'configs'
p92
(lp93
S'powerpc/config.powerpc'
p94
aS'powerpc/config.powerpc-smp'
p95
ass(S'description'
p96
g5
g36
S'amd64'
p97
tp98
(dp99
S'parts'
p100
(lp101
S'xen'
p102
ass(S'base'
p103
S'ppc64'
p104
S'none'
p105
tp106
(dp107
S'implicit-flavour'
p108
I01
sS'flavours'
p109
(lp110
S'powerpc64'
p111
ass(S'image'
p112
g43
NS'octeon'
p113
tp114
(dp115
S'configs'
p116
(lp117
S'kernelarch-mips/config.octeon'
p118
ass(S'image'
p119
g43
NS'sb1-bcm91250a'
p120
tp121
(dp122
S'configs'
p123
(lp124
S'kernelarch-mips/config.sb1-bcm91250a'
p125
ass(S'image'
p126
S's390'
p127
NS's390x'
p128
tp129
(dp130
S'configs'
p131
(lp132
S'kernelarch-s390/config-arch-64'
p133
ass(g103
S'mips'
p134
g105
tp135
(dp136
g108
I01
sg109
(lp137
S'r4k-ip22'
p138
aS'r5k-ip32'
p139
aS'sb1-bcm91250a'
p140
aS'4kc-malta'
p141
aS'5kc-malta'
p142
aS'octeon'
p143
ass(S'description'
p144
S'i386'
p145
S'none'
p146
S'amd64'
p147
tp148
(dp149
S'parts'
p150
(lp151
S'xen'
p152
ass(S'base'
p153
S'alpha'
p154
tp155
(dp156
S'kernel-arch'
p157
S'alpha'
p158
sS'featuresets'
p159
(lp160
g105
ass(S'abi'
p161
g52
NS'orion5x'
p162
tp163
(dp164
S'ignore-changes'
p165
(lp166
S'__ring_buffer_alloc'
p167
aS'dcookie_register'
p168
aS'dcookie_unregister'
p169
aS'get_dcookie'
p170
aS'prof_on'
p171
aS'profile_event_register'
p172
aS'profile_event_unregister'
p173
aS'profile_hits'
p174
aS'ring_buffer_alloc_read_page'
p175
aS'ring_buffer_bytes_cpu'
p176
aS'ring_buffer_change_overwrite'
p177
aS'ring_buffer_commit_overrun_cpu'
p178
aS'ring_buffer_consume'
p179
aS'ring_buffer_discard_commit'
p180
aS'ring_buffer_dropped_events_cpu'
p181
aS'ring_buffer_empty'
p182
aS'ring_buffer_empty_cpu'
p183
aS'ring_buffer_entries'
p184
aS'ring_buffer_entries_cpu'
p185
aS'ring_buffer_event_data'
p186
aS'ring_buffer_event_length'
p187
aS'ring_buffer_free'
p188
aS'ring_buffer_free_read_page'
p189
aS'ring_buffer_iter_empty'
p190
aS'ring_buffer_iter_peek'
p191
aS'ring_buffer_iter_reset'
p192
aS'ring_buffer_lock_reserve'
p193
aS'ring_buffer_normalize_time_stamp'
p194
aS'ring_buffer_oldest_event_ts'
p195
aS'ring_buffer_overrun_cpu'
p196
aS'ring_buffer_overruns'
p197
aS'ring_buffer_peek'
p198
aS'ring_buffer_read'
p199
aS'ring_buffer_read_events_cpu'
p200
aS'ring_buffer_read_finish'
p201
aS'ring_buffer_read_page'
p202
aS'ring_buffer_read_prepare'
p203
aS'ring_buffer_read_prepare_sync'
p204
aS'ring_buffer_read_start'
p205
aS'ring_buffer_record_disable'
p206
aS'ring_buffer_record_disable_cpu'
p207
aS'ring_buffer_record_enable'
p208
aS'ring_buffer_record_enable_cpu'
p209
aS'ring_buffer_record_off'
p210
aS'ring_buffer_record_on'
p211
aS'ring_buffer_reset'
p212
aS'ring_buffer_reset_cpu'
p213
aS'ring_buffer_resize'
p214
aS'ring_buffer_size'
p215
aS'ring_buffer_swap_cpu'
p216
aS'ring_buffer_time_stamp'
p217
aS'ring_buffer_unlock_commit'
p218
aS'ring_buffer_write'
p219
aS'task_handoff_register'
p220
aS'task_handoff_unregister'
p221
aS'trace_clock_local'
p222
ass(S'description'
p223
S'mips64'
p224
NS'octeon'
p225
tp226
(dp227
S'hardware'
p228
S'Octeon'
p229
sS'hardware-long'
p230
S'Cavium Networks Octeon'
p231
ss(g103
S'armhf'
p232
g105
tp233
(dp234
g108
I01
sg109
(lp235
S'rpi'
p236
ass(S'image'
p237
S'ppc64el'
p238
NS'powerpc64le'
p239
tp240
(dp241
S'configs'
p242
(lp243
S'kernelarch-powerpc/config-arch-64'
p244
aS'kernelarch-powerpc/config-arch-64-le'
p245
ass(S'base'
p246
g145
S'rt'
p247
tp248
(dp249
S'flavours'
p250
(lp251
S'686-pae'
p252
ass(S'image'
p253
g43
NS'5kc-malta'
p254
tp255
(dp256
S'configs'
p257
(lp258
S'kernelarch-mips/config.5kc-malta'
p259
ass(S'image'
p260
g238
tp261
(dp262
S'suggests'
p263
S'mkvmlinuz'
p264
sS'configs'
p265
(lp266
sS'install-stem'
p267
S'vmlinux'
p268
ss(S'image'
p269
g134
NS'4kc-malta'
p270
tp271
(dp272
S'configs'
p273
(lp274
S'kernelarch-mips/config.4kc-malta'
p275
ass(S'relations'
p276
g145
tp277
(dp278
S'headers%gcc-4.9'
p279
S'linux-compiler-gcc-4.9-x86 (>= 3.16.51-3+deb8u2~), linux-kbuild-3.16 (>= 3.16.56-1)'
p280
ss(S'image'
p281
g88
tp282
(dp283
S'suggests'
p284
S'mkvmlinuz'
p285
sS'configs'
p286
(lp287
sS'install-stem'
p288
S'vmlinux'
p289
ss(S'image'
p290
g52
NS'kirkwood'
p291
tp292
(dp293
S'check-size'
p294
S'2097080'
p295
sS'breaks'
p296
S'flash-kernel (<< 3.14~)'
p297
sS'recommends'
p298
S'u-boot-tools'
p299
ss(S'description'
p300
S'sh4'
p301
NS'sh7785lcr'
p302
tp303
(dp304
S'hardware'
p305
S'sh7785lcr'
p306
sS'hardware-long'
p307
S'Renesas SH7785 reference board'
p308
ss(S'base'
p309
g5
S'rt'
p310
tp311
(dp312
S'flavours'
p313
(lp314
S'amd64'
p315
ass(S'build'
p316
g238
tp317
(dp318
S'image-file'
p319
S'vmlinux'
p320
ss(S'build'
p321
g104
tp322
(dp323
S'image-file'
p324
S'vmlinux'
p325
ss(S'description'
p326
g224
NS'5kc-malta'
p327
tp328
(dp329
S'hardware'
p330
S'MIPS Malta'
p331
sS'hardware-long'
p332
S'MIPS Malta boards'
p333
ss(S'base'
p334
S'arm64'
p335
tp336
(dp337
S'kernel-arch'
p338
S'arm64'
p339
sS'featuresets'
p340
(lp341
S'none'
p342
ass(S'image'
p343
g134
NS'octeon'
p344
tp345
(dp346
S'configs'
p347
(lp348
S'kernelarch-mips/config.octeon'
p349
ass(S'base'
p350
g145
tp351
(dp352
S'kernel-arch'
p353
S'x86'
p354
sS'featuresets'
p355
(lp356
S'none'
p357
aS'rt'
p358
asS'compiler'
p359
S'gcc-4.9'
p360
ss(S'base'
p361
g61
tp362
(dp363
S'kernel-arch'
p364
S'mips'
p365
sg159
(lp366
g105
ass(S'relations'
p367
g5
tp368
(dp369
S'headers%gcc-4.9'
p370
S'linux-compiler-gcc-4.9-x86 (>= 3.16.51-3+deb8u2~), linux-kbuild-3.16 (>= 3.16.56-1)'
p371
ss(S'base'
p372
tp373
(dp374
S'arches'
p375
(lp376
S'alpha'
p377
aS'amd64'
p378
aS'arm64'
p379
aS'armel'
p380
aS'armhf'
p381
aS'hppa'
p382
aS'i386'
p383
aS'ia64'
p384
aS'm68k'
p385
aS'mips'
p386
aS'mipsel'
p387
aS'mips64'
p388
aS'mips64el'
p389
aS'or1k'
p390
aS'powerpc'
p391
aS'powerpcspe'
p392
aS'ppc64'
p393
aS'ppc64el'
p394
aS's390'
p395
aS's390x'
p396
aS'sh4'
p397
aS'sparc'
p398
aS'sparc64'
p399
aS'x32'
p400
asS'featuresets'
p401
(lp402
S'none'
p403
aS'rt'
p404
asS'compiler'
p405
S'gcc-4.8'
p406
ss(S'description'
p407
g232
NS'rpi'
p408
tp409
(dp410
S'hardware'
p411
S'RaspberryPI'
p412
sS'hardware-long'
p413
S'Raspberry PI'
p414
ss(S'description'
p415
g145
NS'686-pae'
p416
tp417
(dp418
S'hardware'
p419
S'modern PCs'
p420
sS'parts'
p421
(lp422
S'pae'
p423
asS'hardware-long'
p424
S'PCs with one or more processors supporting PAE'
p425
ss(S'image'
p426
g134
NS'r4k-ip22'
p427
tp428
(dp429
S'configs'
p430
(lp431
S'kernelarch-mips/config.r4k-ip22'
p432
ass(S'relations'
p433
g127
tp434
(dp435
S'headers%gcc-4.8'
p436
S'linux-compiler-gcc-4.8-s390'
p437
ss(g103
g61
g105
tp438
(dp439
g108
I01
sg109
(lp440
S'sb1-bcm91250a'
p441
aS'4kc-malta'
p442
aS'5kc-malta'
p443
aS'loongson-2e'
p444
aS'loongson-2f'
p445
aS'loongson-3'
p446
ass(S'image'
p447
g145
NS'586'
p448
tp449
(dp450
S'configs'
p451
(lp452
S'kernelarch-x86/config-arch-32'
p453
aS'i386/config.586'
p454
ass(S'image'
p455
g61
NS'loongson-2e'
p456
tp457
(dp458
S'configs'
p459
(lp460
S'kernelarch-mips/config.loongson-2e'
p461
ass(S'description'
p462
S'powerpcspe'
p463
tp464
(dp465
S'hardware'
p466
S'32-bit PowerPC with SPE (instead of AltiVec) with SMP support'
p467
ss(S'description'
p468
g43
NS'5kc-malta'
p469
tp470
(dp471
S'hardware'
p472
S'MIPS Malta'
p473
sS'hardware-long'
p474
S'MIPS Malta boards'
p475
ss(S'relations'
p476
tp477
(dp478
S'gcc-4.9'
p479
S'gcc-4.9 (>= 4.9.2-10+deb7u1), gcc-4.9 (<< 4.9.2-11)'
p480
sS'gcc-4.8'
p481
S'gcc-4.8'
p482
sS'initramfs-fallback'
p483
S'linux-initramfs-tool'
p484
sS'gcc-4.7'
p485
S'gcc-4.7'
p486
sS'gcc-4.6'
p487
S'gcc-4.6'
p488
sS'gcc-4.4'
p489
S'gcc-4.4'
p490
sS'initramfs-tools'
p491
S'initramfs-tools (>= 0.110~)'
p492
ss(S'build'
p493
S'm68k'
p494
tp495
(dp496
S'image-file'
p497
S'vmlinux.gz'
p498
ss(g103
g43
g105
tp499
(dp500
g108
I01
sg109
(lp501
S'sb1-bcm91250a'
p502
aS'5kc-malta'
p503
aS'loongson-3'
p504
aS'octeon'
p505
ass(S'build'
p506
g463
tp507
(dp508
S'image-file'
p509
S'vmlinux'
p510
ss(S'description'
p511
g238
NS'powerpc64le'
p512
tp513
(dp514
S'hardware'
p515
S'Little-endian 64-bit PowerPC'
p516
ss(g103
g301
g105
tp517
(dp518
g108
I01
sg109
(lp519
S'sh7751r'
p520
aS'sh7785lcr'
p521
ass(S'build'
p522
S'hppa'
p523
tp524
(dp525
S'image-file'
p526
S'vmlinux'
p527
ss(S'image'
p528
g335
NS'arm64'
p529
tp530
(dp531
s(S'base'
p532
g523
NS'parisc64-smp'
p533
tp534
(dp535
S'override-host-type'
p536
S'hppa64-linux-gnu'
p537
sS'cflags'
p538
S'-fno-cse-follow-jumps'
p539
ss(S'base'
p540
g52
tp541
(dp542
S'kernel-arch'
p543
S'arm'
p544
sg159
(lp545
g105
ass(S'build'
p546
g335
tp547
(dp548
S'debug-info'
p549
I01
sS'image-file'
p550
S'arch/arm64/boot/Image'
p551
ss(S'base'
p552
S'sparc'
p553
tp554
(dp555
S'kernel-arch'
p556
S'sparc'
p557
sg159
(lp558
g105
ass(S'base'
p559
g463
tp560
(dp561
S'kernel-arch'
p562
S'powerpc'
p563
sg159
(lp564
g105
ass(S'relations'
p565
g232
tp566
(dp567
S'headers%gcc-4.8'
p568
S'linux-compiler-gcc-4.8-arm'
p569
ss(S'description'
p570
g61
NS'loongson-3'
p571
tp572
(dp573
S'hardware'
p574
S'Loongson 3A/3B'
p575
sS'hardware-long'
p576
S'Loongson 3A or 3B based systems (e.g. from Loongson or Lemote)'
p577
ss(S'abi'
p578
Ng18
tp579
(dp580
S'ignore-changes'
p581
(lp582
S'*'
p583
ass(g103
g127
g105
tp584
(dp585
g108
I01
sg109
(lp586
S's390x'
p587
ass(S'build'
p588
g134
tp589
(dp590
S'image-file'
p591
S'vmlinux'
p592
ss(g103
S's390x'
p593
g105
tp594
(dp595
g108
I01
sg109
(lp596
S's390x'
p597
ass(S'base'
p598
g134
tp599
(dp600
S'kernel-arch'
p601
S'mips'
p602
sg159
(lp603
g105
ass(S'build'
p604
g5
tp605
(dp606
S'debug-info'
p607
I01
sS'image-file'
p608
S'arch/x86/boot/bzImage'
p609
ss(S'build'
p610
g553
tp611
(dp612
S'image-file'
p613
S'arch/sparc/boot/zImage'
p614
ss(S'image'
p615
g61
tp616
(dp617
S'install-stem'
p618
S'vmlinux'
p619
ss(S'description'
p620
S'sparc64'
p621
NS'sparc64'
p622
tp623
(dp624
S'hardware'
p625
S'uniprocessor 64-bit UltraSPARC'
p626
ss(S'build'
p627
g88
tp628
(dp629
S'image-file'
p630
S'vmlinux'
p631
ss(S'description'
p632
g134
NS'5kc-malta'
p633
tp634
(dp635
S'hardware'
p636
S'MIPS Malta (64-bit)'
p637
sS'hardware-long'
p638
S'MIPS Malta boards (64-bit)'
p639
ss(S'base'
p640
g43
tp641
(dp642
S'kernel-arch'
p643
S'mips'
p644
sg159
(lp645
g105
ass(S'build'
p646
g61
tp647
(dp648
S'image-file'
p649
S'vmlinux'
p650
ss(S'base'
p651
g224
tp652
(dp653
S'kernel-arch'
p654
S'mips'
p655
sg159
(lp656
g105
ass(S'image'
p657
g61
NS'loongson-2f'
p658
tp659
(dp660
S'configs'
p661
(lp662
S'kernelarch-mips/config.loongson-2f'
p663
asS'recommends'
p664
S'libc6-loongson2f'
p665
ss(S'base'
p666
g5
tp667
(dp668
S'kernel-arch'
p669
S'x86'
p670
sS'featuresets'
p671
(lp672
S'none'
p673
aS'rt'
p674
asS'compiler'
p675
S'gcc-4.9'
p676
ss(S'base'
p677
g29
tp678
(dp679
S'kernel-arch'
p680
S'ia64'
p681
sg159
(lp682
g105
asS'compiler'
p683
S'gcc-4.6'
p684
ss(S'description'
p685
g61
NS'5kc-malta'
p686
tp687
(dp688
S'hardware'
p689
S'MIPS Malta (64-bit)'
p690
sS'hardware-long'
p691
S'MIPS Malta boards (64-bit)'
p692
ss(S'base'
p693
g494
tp694
(dp695
S'kernel-arch'
p696
S'm68k'
p697
sg159
(lp698
g105
asS'cflags'
p699
S'-ffreestanding'
p700
sS'compiler'
p701
S'gcc-4.8'
p702
ss(S'abi'
p703
g52
NS'kirkwood'
p704
tp705
(dp706
S'ignore-changes'
p707
(lp708
S'zs_create_pool'
p709
aS'zs_destroy_pool'
p710
aS'zs_free'
p711
aS'zs_get_total_size_bytes'
p712
aS'zs_malloc'
p713
aS'zs_map_object'
p714
aS'zs_unmap_object'
p715
aS'fips_enabled'
p716
aS'dcookie_register'
p717
aS'dcookie_unregister'
p718
aS'get_dcookie'
p719
aS'prof_on'
p720
aS'profile_event_register'
p721
aS'profile_event_unregister'
p722
aS'profile_hits'
p723
aS'ring_buffer_swap_cpu'
p724
aS'task_handoff_register'
p725
aS'task_handoff_unregister'
p726
aS'disable_kprobe'
p727
aS'enable_kprobe'
p728
aS'jprobe_return'
p729
aS'profile_hits'
p730
aS'register_jprobe'
p731
aS'register_jprobes'
p732
aS'register_kprobe'
p733
aS'register_kprobes'
p734
aS'register_kretprobe'
p735
aS'register_kretprobes'
p736
aS'unregister_jprobe'
p737
aS'unregister_jprobes'
p738
aS'unregister_kprobe'
p739
aS'unregister_kprobes'
p740
aS'unregister_kretprobe'
p741
aS'unregister_kretprobes'
p742
ass(S'base'
p743
g127
tp744
(dp745
S'kernel-arch'
p746
S's390'
p747
sg159
(lp748
g105
ass(g103
g52
g105
tp749
(dp750
g108
I01
sg109
(lp751
S'ixp4xx'
p752
aS'kirkwood'
p753
aS'orion5x'
p754
aS'versatile'
p755
ass(S'description'
p756
g145
tp757
(dp758
S'part-long-pae'
p759
S'This kernel requires PAE (Physical Address Extension).\nThis feature is supported by the Intel Pentium Pro/II/III/4/4M/D, Xeon,\nCore and Atom; AMD Geode NX, Athlon (K7), Duron, Opteron, Sempron,\nTurion or Phenom; Transmeta Efficeon; VIA C7; and some other processors.'
p760
ss(S'description'
p761
g88
NS'powerpc'
p762
tp763
(dp764
S'hardware'
p765
S'uniprocessor 32-bit PowerPC'
p766
ss(S'image'
p767
g61
NS'sb1-bcm91250a'
p768
tp769
(dp770
S'configs'
p771
(lp772
S'kernelarch-mips/config.sb1-bcm91250a'
p773
ass(S'image'
p774
g61
NS'4kc-malta'
p775
tp776
(dp777
S'configs'
p778
(lp779
S'kernelarch-mips/config.4kc-malta'
p780
ass(S'image'
p781
g621
NS'sparc64-smp'
p782
tp783
(dp784
S'configs'
p785
(lp786
S'kernelarch-sparc/config-smp'
p787
ass(S'build'
p788
g43
tp789
(dp790
S'image-file'
p791
S'vmlinux'
p792
ss(S'xen'
p793
g5
g36
S'amd64'
p794
tp795
(dp796
S'flavours'
p797
(lp798
S'amd64'
p799
ass(S'description'
p800
g523
NS'parisc64-smp'
p801
tp802
(dp803
S'hardware'
p804
S'multiprocessor 64-bit PA-RISC'
p805
sS'hardware-long'
p806
S'HP PA-RISC 64-bit SMP systems with support for more than 4 GB RAM'
p807
ss(S'image'
p808
g127
tp809
(dp810
S'install-stem'
p811
S'vmlinuz'
p812
sS'configs'
p813
(lp814
sS'bootloaders'
p815
(lp816
S's390-tools'
p817
ass(S'image'
p818
g593
NS's390x'
p819
tp820
(dp821
S'configs'
p822
(lp823
S'kernelarch-s390/config-arch-64'
p824
ass(S'relations'
p825
g52
tp826
(dp827
S'headers%gcc-4.8'
p828
S'linux-compiler-gcc-4.8-arm'
p829
ss(S'image'
p830
g523
tp831
(dp832
S'suggests'
p833
S'palo'
p834
sS'install-stem'
p835
S'vmlinux'
p836
ss(S'build'
p837
g232
NS'rpi'
p838
tp839
(dp840
S'image-file'
p841
S'arch/arm/boot/zImage'
p842
ss(S'image'
p843
g43
NS'loongson-3'
p844
tp845
(dp846
S'configs'
p847
(lp848
S'kernelarch-mips/config.loongson-3'
p849
ass(g103
g224
g105
tp850
(dp851
g108
I01
sg109
(lp852
S'sb1-bcm91250a'
p853
aS'5kc-malta'
p854
aS'octeon'
p855
ass(S'relations'
p856
g523
tp857
(dp858
S'gcc-4.8'
p859
S'gcc-4.8, binutils-hppa64, gcc-4.8-hppa64'
p860
ss(S'description'
p861
g52
NS'orion5x'
p862
tp863
(dp864
S'hardware'
p865
S'Marvell Orion'
p866
sS'hardware-long'
p867
S'Marvell Orion 5181, 5182 and 5281 based systems (QNAP TS-109/TS-209, etc)'
p868
ss(S'description'
p869
g52
NS'ixp4xx'
p870
tp871
(dp872
S'hardware'
p873
S'IXP4xx'
p874
sS'hardware-long'
p875
S'IXP4xx based systems (Linksys NSLU2, etc)'
p876
ss(S'description'
p877
g154
NS'alpha-smp'
p878
tp879
(dp880
S'hardware'
p881
S'Alpha SMP'
p882
sS'hardware-long'
p883
S'DEC Alpha SMP systems with extended kernel start address (Wildfire, Titan, Marvel)'
p884
ss(S'image'
p885
g5
NS'amd64'
p886
tp887
(dp888
S'configs'
p889
(lp890
S'kernelarch-x86/config-arch-64'
p891
ass(S'image'
p892
g104
tp893
(dp894
S'suggests'
p895
S'mkvmlinuz'
p896
sS'configs'
p897
(lp898
sS'install-stem'
p899
S'vmlinux'
p900
ss(S'description'
p901
g145
NS'586'
p902
tp903
(dp904
S'hardware'
p905
S'older PCs'
p906
sS'parts'
p907
(lp908
S'up'
p909
asS'hardware-long'
p910
S'PCs with a single processor not supporting PAE'
p911
ss(g103
g523
g105
tp912
(dp913
g108
I01
sg109
(lp914
S'parisc'
p915
aS'parisc64-smp'
p916
ass(S'image'
p917
g154
tp918
(dp919
S'suggests'
p920
S'aboot, fdutils'
p921
sS'install-stem'
p922
S'vmlinuz'
p923
ss(S'image'
p924
g134
NS'sb1-bcm91250a'
p925
tp926
(dp927
S'configs'
p928
(lp929
S'kernelarch-mips/config.sb1-bcm91250a'
p930
ass(S'base'
p931
g621
tp932
(dp933
S'kernel-arch'
p934
S'sparc'
p935
sg159
(lp936
g105
ass(S'image'
p937
g104
NS'powerpc64'
p938
tp939
(dp940
S'configs'
p941
(lp942
S'kernelarch-powerpc/config-arch-64'
p943
aS'kernelarch-powerpc/config-arch-64-be'
p944
ass(S'base'
p945
S'or1k'
p946
tp947
(dp948
S'kernel-arch'
p949
S'openrisc'
p950
sS'featuresets'
p951
(lp952
ss(S'version'
p953
tp954
(dp955
S'abiname'
p956
S'3.16.0-6'
p957
sS'source'
p958
V3.16.56-1+rpi1+deb8u1
p959
sS'abiname_base'
p960
S'3.16.0'
p961
sS'upstream'
p962
S'3.16'
p963
ss(S'image'
p964
g463
tp965
(dp966
S'suggests'
p967
S'mkvmlinuz'
p968
sS'install-stem'
p969
S'vmlinux'
p970
ss(S'description'
p971
g88
NS'powerpc-smp'
p972
tp973
(dp974
S'hardware'
p975
S'multiprocessor 32-bit PowerPC'
p976
ss(S'base'
p977
g593
tp978
(dp979
S'kernel-arch'
p980
S's390'
p981
sg159
(lp982
g105
ass(S'description'
p983
g232
NS'armmp'
p984
tp985
(dp986
S'hardware'
p987
S'ARMv7 multiplatform compatible SoCs'
p988
sS'hardware-long'
p989
S'ARMv7 multiplatform kernel. See\nhttps://wiki.debian.org/DebianKernel/ARMMP for details of supported\nplatforms'
p990
ss(S'description'
p991
g29
NS'mckinley'
p992
tp993
(dp994
S'hardware'
p995
S'Itanium II'
p996
ss(S'description'
p997
g621
NS'sparc64-smp'
p998
tp999
(dp1000
S'hardware'
p1001
S'multiprocessor 64-bit UltraSPARC'
p1002
ss(S'image'
p1003
g134
tp1004
(dp1005
S'install-stem'
p1006
S'vmlinux'
p1007
ss(S'image'
p1008
g145
tp1009
(dp1010
S'install-stem'
p1011
S'vmlinuz'
p1012
sS'configs'
p1013
(lp1014
sS'bootloaders'
p1015
(lp1016
S'grub-pc'
p1017
aS'extlinux'
p1018
ass(g103
g553
g105
tp1019
(dp1020
g108
I01
sg109
(lp1021
S'sparc64'
p1022
aS'sparc64-smp'
p1023
ass(S'relations'
p1024
g88
tp1025
(dp1026
S'gcc-4.8'
p1027
S'gcc-4.8 (>= 4.8.2-21)'
p1028
ss(g103
g154
g105
tp1029
(dp1030
g108
I01
sg109
(lp1031
S'alpha-generic'
p1032
aS'alpha-smp'
p1033
ass(S'description'
p1034
g5
NS'amd64'
p1035
tp1036
(dp1037
S'hardware'
p1038
S'64-bit PCs'
p1039
sS'hardware-long'
p1040
S'PCs with AMD64, Intel 64 or VIA Nano processors'
p1041
ss(S'base'
p1042
S'x32'
p1043
tp1044
(dp1045
S'kernel-arch'
p1046
S'x86'
p1047
sS'featuresets'
p1048
(lp1049
ss(S'base'
p1050
g104
tp1051
(dp1052
S'kernel-arch'
p1053
S'powerpc'
p1054
sg159
(lp1055
g105
ass(S'description'
p1056
g553
NS'sparc64'
p1057
tp1058
(dp1059
S'hardware'
p1060
S'uniprocessor 64-bit UltraSPARC'
p1061
ss(S'description'
p1062
g224
NS'sb1-bcm91250a'
p1063
tp1064
(dp1065
S'hardware'
p1066
S'BCM91250A'
p1067
sS'hardware-long'
p1068
S'Broadcom BCM91250A systems (aka SWARM)'
p1069
ss(S'image'
p1070
g52
NS'orion5x'
p1071
tp1072
(dp1073
S'check-size'
p1074
S'1572792'
p1075
sS'configs'
p1076
(lp1077
S'armel/config-reduced'
p1078
aS'armel/config.orion5x'
p1079
asS'recommends'
p1080
S'u-boot-tools'
p1081
ss(S'image'
p1082
g224
NS'sb1-bcm91250a'
p1083
tp1084
(dp1085
S'configs'
p1086
(lp1087
S'kernelarch-mips/config.sb1-bcm91250a'
p1088
ass(S'description'
p1089
g553
NS'sparc64-smp'
p1090
tp1091
(dp1092
S'hardware'
p1093
S'multiprocessor 64-bit UltraSPARC'
p1094
ss(S'base'
p1095
g523
tp1096
(dp1097
S'kernel-arch'
p1098
S'parisc'
p1099
sg159
(lp1100
g105
ass(S'build'
p1101
g154
tp1102
(dp1103
S'image-file'
p1104
S'arch/alpha/boot/vmlinux.gz'
p1105
ss(S'image'
p1106
g88
NS'powerpc64'
p1107
tp1108
(dp1109
S'configs'
p1110
(lp1111
S'kernelarch-powerpc/config-arch-64'
p1112
aS'kernelarch-powerpc/config-arch-64-be'
p1113
ass(S'description'
p1114
g145
g146
S'686-pae'
p1115
tp1116
(dp1117
S'parts'
p1118
(lp1119
S'xen'
p1120
ass(S'image'
p1121
g224
tp1122
(dp1123
S'install-stem'
p1124
S'vmlinux'
p1125
ss(S'image'
p1126
g134
NS'r5k-ip32'
p1127
tp1128
(dp1129
S'configs'
p1130
(lp1131
S'kernelarch-mips/config.r5k-ip32'
p1132
ass(S'image'
p1133
g232
NS'armmp-lpae'
p1134
tp1135
(dp1136
S'configs'
p1137
(lp1138
S'armhf/config.armmp'
p1139
aS'armhf/config.lpae'
p1140
ass(S'description'
p1141
g523
NS'parisc'
p1142
tp1143
(dp1144
S'hardware'
p1145
S'32-bit PA-RISC'
p1146
sS'hardware-long'
p1147
S'HP PA-RISC 32-bit systems with max 4 GB RAM'
p1148
ss(g103
g29
g105
tp1149
(dp1150
g108
I01
sg109
(lp1151
S'itanium'
p1152
aS'mckinley'
p1153
ass(S'build'
p1154
g301
tp1155
(dp1156
S'image-file'
p1157
S'arch/sh/boot/zImage'
p1158
ss(S'image'
p1159
g494
tp1160
(dp1161
S'suggests'
p1162
S'vmelilo, fdutils'
p1163
sS'install-stem'
p1164
S'vmlinuz'
p1165
ss(S'description'
p1166
g232
NS'armmp-lpae'
p1167
tp1168
(dp1169
S'hardware'
p1170
S'ARMv7 multiplatform compatible SoCs supporting LPAE'
p1171
sS'hardware-long'
p1172
S'ARMv7 multiplatform kernel supporting LPAE. See\nhttps://wiki.debian.org/DebianKernel/ARMMP for details of supported\nplatforms.'
p1173
ss(S'base'
p1174
g335
S'none'
p1175
tp1176
(dp1177
S'flavours'
p1178
(lp1179
S'arm64'
p1180
ass(S'image'
p1181
g224
NS'5kc-malta'
p1182
tp1183
(dp1184
S'configs'
p1185
(lp1186
S'kernelarch-mips/config.5kc-malta'
p1187
ass(S'build'
p1188
g224
tp1189
(dp1190
S'image-file'
p1191
S'vmlinux'
p1192
ss(S'build'
p1193
g232
tp1194
(dp1195
S'image-file'
p1196
S'arch/arm/boot/zImage'
p1197
ss(S'description'
p1198
g61
NS'4kc-malta'
p1199
tp1200
(dp1201
S'hardware'
p1202
S'MIPS Malta'
p1203
sS'hardware-long'
p1204
S'MIPS Malta boards'
p1205
ss(S'build'
p1206
g29
tp1207
(dp1208
S'image-file'
p1209
S'vmlinux.gz'
p1210
ss(S'base'
p1211
g232
tp1212
(dp1213
S'kernel-arch'
p1214
S'arm'
p1215
sg159
(lp1216
g105
ass(S'description'
p1217
g134
NS'sb1-bcm91250a'
p1218
tp1219
(dp1220
S'hardware'
p1221
S'BCM91250A'
p1222
sS'hardware-long'
p1223
S'Broadcom BCM91250A systems (aka SWARM)'
p1224
ss(S'image'
p1225
g301
tp1226
(dp1227
S'suggests'
p1228
S'fdutils'
p1229
sS'install-stem'
p1230
S'vmlinuz'
p1231
ss(S'base'
p1232
g88
tp1233
(dp1234
S'kernel-arch'
p1235
S'powerpc'
p1236
sg159
(lp1237
g105
ass(S'base'
p1238
NS'rt'
p1239
tp1240
(dp1241
S'enabled'
p1242
I00
ss(S'build'
p1243
g593
tp1244
(dp1245
S'image-file'
p1246
S'arch/s390/boot/image'
p1247
ss(S'description'
p1248
g134
NS'r4k-ip22'
p1249
tp1250
(dp1251
S'hardware'
p1252
S'SGI IP22'
p1253
sS'hardware-long'
p1254
S'SGI IP22 systems (Indy, Indigo2)'
p1255
ss(S'base'
p1256
g301
tp1257
(dp1258
S'kernel-arch'
p1259
S'sh'
p1260
sg159
(lp1261
g105
ass(S'description'
p1262
g127
NS's390x'
p1263
tp1264
(dp1265
S'hardware'
p1266
S'IBM zSeries'
p1267
ss(S'image'
p1268
g553
tp1269
(dp1270
S'suggests'
p1271
S'silo, fdutils'
p1272
sS'configs'
p1273
(lp1274
sS'install-stem'
p1275
S'vmlinuz'
p1276
ss(S'description'
p1277
tp1278
(dp1279
S'part-long-up'
p1280
S'This kernel is not suitable for SMP (multi-processor,\nmulti-core or hyper-threaded) systems.'
p1281
sS'part-long-xen'
p1282
S'This kernel also runs on a Xen hypervisor.\nIt supports both privileged (dom0) and unprivileged (domU) operation.'
p1283
ss(S'build'
p1284
g621
tp1285
(dp1286
S'image-file'
p1287
S'arch/sparc/boot/zImage'
p1288
ss(S'description'
p1289
g335
NS'arm64'
p1290
tp1291
(dp1292
S'hardware'
p1293
S'64-bit ARMv8 machines'
p1294
ss(S'image'
p1295
g61
NS'5kc-malta'
p1296
tp1297
(dp1298
S'configs'
p1299
(lp1300
S'kernelarch-mips/config.5kc-malta'
p1301
ass(S'build'
p1302
g145
NS'686-pae'
p1303
tp1304
(dp1305
S'debug-info'
p1306
I01
ss(S'build'
p1307
g593
NS's390x'
p1308
tp1309
(dp1310
S'debug-info'
p1311
I01
ss(S'image'
p1312
g621
tp1313
(dp1314
S'suggests'
p1315
S'silo, fdutils'
p1316
sS'configs'
p1317
(lp1318
sS'install-stem'
p1319
S'vmlinuz'
p1320
ss(S'relations'
p1321
g593
tp1322
(dp1323
S'headers%gcc-4.8'
p1324
S'linux-compiler-gcc-4.8-s390'
p1325
ss(S'relations'
p1326
g104
tp1327
(dp1328
S'gcc-4.8'
p1329
S'gcc-4.8 (>= 4.8.2-21)'
p1330
ss(S'description'
p1331
g134
NS'r5k-ip32'
p1332
tp1333
(dp1334
S'hardware'
p1335
S'SGI IP32'
p1336
sS'hardware-long'
p1337
S'SGI IP32 systems (O2)'
p1338
ss(S'build'
p1339
g127
NS's390x'
p1340
tp1341
(dp1342
S'debug-info'
p1343
I01
ss(S'image'
p1344
g553
NS'sparc64-smp'
p1345
tp1346
(dp1347
S'configs'
p1348
(lp1349
S'kernelarch-sparc/config-smp'
p1350
ass(S'image'
p1351
g61
NS'loongson-3'
p1352
tp1353
(dp1354
S'configs'
p1355
(lp1356
S'kernelarch-mips/config.loongson-3'
p1357
ass(S'build'
p1358
g127
tp1359
(dp1360
S'image-file'
p1361
S'arch/s390/boot/image'
p1362
ss(S'description'
p1363
g494
NS'm68k'
p1364
tp1365
(dp1366
S'hardware'
p1367
S'Motorola MC68020+ family'
p1368
ss(S'image'
p1369
g232
tp1370
(dp1371
S'suggests'
p1372
S'fdutils'
p1373
sS'configs'
p1374
(lp1375
S'kernelarch-arm/config'
p1376
aS'armhf/config'
p1377
asS'install-stem'
p1378
S'vmlinuz'
p1379
ss(S'abi'
p1380
tp1381
(dp1382
S'abiname'
p1383
S'6'
p1384
sS'ignore-changes'
p1385
(lp1386
S'module:arch/x86/kvm/kvm'
p1387
aS'module:arch/powerpc/kvm/kvm'
p1388
aS'module:drivers/md/dm-snapshot'
p1389
aS'module:drivers/misc/mei/*'
p1390
aS'module:drivers/mtd/spi-nor/spi-nor'
p1391
aS'module:drivers/net/can/can-dev'
p1392
aS'module:drivers/net/ethernet/**'
p1393
aS'module:drivers/net/wireless/**'
p1394
aS'module:drivers/s390/net/qeth'
p1395
aS'module:drivers/s390/net/qeth*'
p1396
aS'module:drivers/scsi/cxgbi/*'
p1397
aS'module:drivers/scsi/libiscs*'
p1398
aS'module:drivers/scsi/qla2xxx/qla2xxx'
p1399
aS'module:drivers/staging/usbip/*'
p1400
aS'module:drivers/target/iscsi/iscsi_target_mod'
p1401
aS'module:drivers/target/target_core_mod'
p1402
aS'module:drivers/usb/musb/*'
p1403
aS'module:net/ceph/libceph'
p1404
aS'module:net/l2tp/*'
p1405
aS'module:net/rds/rds'
p1406
aS'module:sound/firewire/snd-firewire-lib'
p1407
aS'module:sound/i2c/other/snd-ak4113'
p1408
aS'module:sound/i2c/other/snd-ak4114'
p1409
aS'module:sound/pci/emu10k1/*'
p1410
aS'azx_alloc_cmd_io'
p1411
aS'azx_free_cmd_io'
p1412
aS'azx_get_response'
p1413
aS'azx_init_cmd_io'
p1414
aS'azx_send_cmd'
p1415
aS'can_rx_register'
p1416
aS'cpuidle_*'
p1417
aS'inet_add_protocol'
p1418
aS'inet_del_protocol'
p1419
aS'inet_frag_*'
p1420
aS'inet_frags_*'
p1421
aS'kvm_async_pf_task_wait'
p1422
aS'kvmppc_*'
p1423
aS'musb_*'
p1424
aS'perf_trace_*'
p1425
aS'tcp_make_synack'
p1426
aS'tcp_parse_options'
p1427
aS'tcp_try_fastopen'
p1428
aS'__add_pages'
p1429
aS'__remove_pages'
p1430
aS'nf_register_queue_handler'
p1431
aS'of_device_is_stdout_path'
p1432
aS'module:sound/soc/*'
p1433
aS'blk_rq_check_limits'
p1434
aS'clk_divider_ro_ops'
p1435
aS'tick_nohz_idle_enter'
p1436
aS'tick_nohz_idle_exit'
p1437
aS'skb_copy_and_csum_datagram_iovec'
p1438
aS'module:net/dccp/dccp'
p1439
aS'fl6_*'
p1440
aS'inet_sk_diag_fill'
p1441
aS'ip6_append_data'
p1442
aS'ip6_datagram_send_ctl'
p1443
aS'ip6_xmit'
p1444
aS'ipv6_dup_options'
p1445
aS'ipv6_fixup_options'
p1446
aS'ipv6_push_nfrag_opts'
p1447
aS'tcp_cong_avoid_ai'
p1448
aS'tcp_slow_start'
p1449
aS'__scm_destroy'
p1450
aS'__scm_send'
p1451
aS'scm_detach_fds'
p1452
aS'scm_fp_dup'
p1453
aS'af_alg_*'
p1454
aS'xt_compat_match_from_user'
p1455
aS'efivar_validate'
p1456
aS'zpci_disable_device'
p1457
aS'zpci_enable_device'
p1458
aS'zpci_stop_device'
p1459
aS'fsnotify_*_group'
p1460
aS'fsnotify_*_mark'
p1461
aS'module:drivers/infiniband/**'
p1462
ass(S'image'
p1463
g145
NS'amd64'
p1464
tp1465
(dp1466
S'configs'
p1467
(lp1468
S'kernelarch-x86/config-arch-64'
p1469
asS'recommends'
p1470
S'libc6-i686'
p1471
ss(S'description'
p1472
g593
NS's390x'
p1473
tp1474
(dp1475
S'hardware'
p1476
S'IBM zSeries'
p1477
ss(g103
g463
g105
tp1478
(dp1479
g108
I01
sg109
(lp1480
S'powerpcspe'
p1481
ass(g103
g494
g105
tp1482
(dp1483
g108
I01
sg109
(lp1484
S'm68k'
p1485
ass(S'description'
p1486
g553
NS'sparc32'
p1487
tp1488
(dp1489
S'hardware'
p1490
S'uniprocessor sparc32 (sun4m)'
p1491
ss(S'base'
p1492
g145
g146
tp1493
(dp1494
S'flavours'
p1495
(lp1496
S'586'
p1497
aS'686-pae'
p1498
aS'amd64'
p1499
ass(S'image'
p1500
g224
NS'octeon'
p1501
tp1502
(dp1503
S'configs'
p1504
(lp1505
S'kernelarch-mips/config.octeon'
p1506
ass(S'image'
p1507
g52
tp1508
(dp1509
S'suggests'
p1510
S'fdutils'
p1511
sS'configs'
p1512
(lp1513
S'kernelarch-arm/config'
p1514
aS'armel/config'
p1515
asS'install-stem'
p1516
S'vmlinuz'
p1517
ss(S'image'
p1518
g134
NS'5kc-malta'
p1519
tp1520
(dp1521
S'configs'
p1522
(lp1523
S'kernelarch-mips/config.5kc-malta'
p1524
ass(S'description'
p1525
g43
NS'loongson-3'
p1526
tp1527
(dp1528
S'hardware'
p1529
S'Loongson 3A/3B'
p1530
sS'hardware-long'
p1531
S'Loongson 3A or 3B based systems (e.g. from Loongson or Lemote)'
p1532
ss(S'build'
p1533
g52
tp1534
(dp1535
S'image-file'
p1536
S'arch/arm/boot/zImage'
p1537
ss(g103
g88
g105
tp1538
(dp1539
g108
I01
sg109
(lp1540
S'powerpc'
p1541
aS'powerpc-smp'
p1542
aS'powerpc64'
p1543
ass(S'image'
p1544
g43
tp1545
(dp1546
S'install-stem'
p1547
S'vmlinux'
p1548
ss(S'image'
p1549
g621
NS'sparc64'
p1550
tp1551
(dp1552
S'configs'
p1553
(lp1554
S'kernelarch-sparc/config-up'
p1555
ass(S'image'
p1556
g553
NS'sparc32'
p1557
tp1558
(dp1559
S'image-postproc'
p1560
S'sparc32-image-postproc'
p1561
ss(S'base'
p1562
g238
tp1563
(dp1564
S'kernel-arch'
p1565
S'powerpc'
p1566
sg159
(lp1567
g105
ass(S'description'
p1568
g301
NS'sh7751r'
p1569
tp1570
(dp1571
S'hardware'
p1572
S'sh7751r'
p1573
sS'hardware-long'
p1574
S'Renesas SH7751R R2D plus board'
p1575
ss(S'description'
p1576
g154
NS'alpha-generic'
p1577
tp1578
(dp1579
S'hardware'
p1580
S'Alpha'
p1581
sS'hardware-long'
p1582
S'DEC Alpha systems with extended kernel start address (Wildfire, Titan, Marvel)'
p1583
ss(S'description'
p1584
g61
NS'loongson-2f'
p1585
tp1586
(dp1587
S'hardware'
p1588
S'Loongson 2F'
p1589
sS'hardware-long'
p1590
S'Lemote Loongson 2F systems'
p1591
ss(S'image'
p1592
tp1593
(dp1594
S'initramfs-generators'
p1595
(lp1596
S'initramfs-tools'
p1597
aS'initramfs-fallback'
p1598
asS'type'
p1599
S'plain'
p1600
ss(S'abi'
p1601
g52
NS'ixp4xx'
p1602
tp1603
(dp1604
S'ignore-changes'
p1605
(lp1606
S'__ring_buffer_alloc'
p1607
aS'dcookie_register'
p1608
aS'dcookie_unregister'
p1609
aS'get_dcookie'
p1610
aS'prof_on'
p1611
aS'profile_event_register'
p1612
aS'profile_event_unregister'
p1613
aS'profile_hits'
p1614
aS'ring_buffer_alloc_read_page'
p1615
aS'ring_buffer_bytes_cpu'
p1616
aS'ring_buffer_change_overwrite'
p1617
aS'ring_buffer_commit_overrun_cpu'
p1618
aS'ring_buffer_consume'
p1619
aS'ring_buffer_discard_commit'
p1620
aS'ring_buffer_dropped_events_cpu'
p1621
aS'ring_buffer_empty'
p1622
aS'ring_buffer_empty_cpu'
p1623
aS'ring_buffer_entries'
p1624
aS'ring_buffer_entries_cpu'
p1625
aS'ring_buffer_event_data'
p1626
aS'ring_buffer_event_length'
p1627
aS'ring_buffer_free'
p1628
aS'ring_buffer_free_read_page'
p1629
aS'ring_buffer_iter_empty'
p1630
aS'ring_buffer_iter_peek'
p1631
aS'ring_buffer_iter_reset'
p1632
aS'ring_buffer_lock_reserve'
p1633
aS'ring_buffer_normalize_time_stamp'
p1634
aS'ring_buffer_oldest_event_ts'
p1635
aS'ring_buffer_overrun_cpu'
p1636
aS'ring_buffer_overruns'
p1637
aS'ring_buffer_peek'
p1638
aS'ring_buffer_read'
p1639
aS'ring_buffer_read_events_cpu'
p1640
aS'ring_buffer_read_finish'
p1641
aS'ring_buffer_read_page'
p1642
aS'ring_buffer_read_prepare'
p1643
aS'ring_buffer_read_prepare_sync'
p1644
aS'ring_buffer_read_start'
p1645
aS'ring_buffer_record_disable'
p1646
aS'ring_buffer_record_disable_cpu'
p1647
aS'ring_buffer_record_enable'
p1648
aS'ring_buffer_record_enable_cpu'
p1649
aS'ring_buffer_record_off'
p1650
aS'ring_buffer_record_on'
p1651
aS'ring_buffer_reset'
p1652
aS'ring_buffer_reset_cpu'
p1653
aS'ring_buffer_resize'
p1654
aS'ring_buffer_size'
p1655
aS'ring_buffer_swap_cpu'
p1656
aS'ring_buffer_time_stamp'
p1657
aS'ring_buffer_unlock_commit'
p1658
aS'ring_buffer_write'
p1659
aS'task_handoff_register'
p1660
aS'task_handoff_unregister'
p1661
aS'trace_clock_local'
p1662
ass(S'description'
p1663
g61
NS'loongson-2e'
p1664
tp1665
(dp1666
S'hardware'
p1667
S'Loongson 2E'
p1668
sS'hardware-long'
p1669
S'Lemote Loongson 2E systems'
p1670
ss(g103
g621
g105
tp1671
(dp1672
g108
I01
sg109
(lp1673
S'sparc64'
p1674
aS'sparc64-smp'
p1675
ass(S'description'
p1676
g134
NS'octeon'
p1677
tp1678
(dp1679
S'hardware'
p1680
S'Octeon'
p1681
sS'hardware-long'
p1682
S'Cavium Networks Octeon'
p1683
ss(S'description'
p1684
g104
NS'powerpc64'
p1685
tp1686
(dp1687
S'hardware'
p1688
S'64-bit PowerPC'
p1689
ss(S'description'
p1690
g52
NS'versatile'
p1691
tp1692
(dp1693
S'hardware'
p1694
S'Versatile'
p1695
sS'hardware-long'
p1696
S'Versatile systems (PB, AB, Qemu)'
p1697
ss(S'build'
p1698
g145
tp1699
(dp1700
S'image-file'
p1701
S'arch/x86/boot/bzImage'
p1702
ss(S'image'
p1703
g301
NS'sh7785lcr'
p1704
tp1705
(dp1706
S'check-size'
p1707
S'4194304'
p1708
sS'recommends'
p1709
S'u-boot-tools'
p1710
ss(S'image'
p1711
g593
tp1712
(dp1713
S'install-stem'
p1714
S'vmlinuz'
p1715
sS'configs'
p1716
(lp1717
sS'bootloaders'
p1718
(lp1719
S's390-tools'
p1720
ass(S'image'
p1721
g335
tp1722
(dp1723
S'install-stem'
p1724
S'vmlinuz'
p1725
ss(S'description'
p1726
g145
NS'amd64'
p1727
tp1728
(dp1729
S'hardware'
p1730
S'64-bit PCs'
p1731
sS'parts'
p1732
(lp1733
S'xen'
p1734
asS'hardware-long'
p1735
S'PCs with AMD64, Intel 64 or VIA Nano processors'
p1736
ss(S'description'
p1737
g88
NS'powerpc64'
p1738
tp1739
(dp1740
S'hardware'
p1741
S'64-bit PowerPC'
p1742
ss(S'image'
p1743
g52
NS'ixp4xx'
p1744
tp1745
(dp1746
S'check-size'
p1747
S'1441760'
p1748
sS'configs'
p1749
(lp1750
S'armel/config-reduced'
p1751
aS'armel/config.ixp4xx'
p1752
ass(S'image'
p1753
g145
NS'686-pae'
p1754
tp1755
(dp1756
S'configs'
p1757
(lp1758
S'kernelarch-x86/config-arch-32'
p1759
aS'i386/config.686-pae'
p1760
asS'recommends'
p1761
S'libc6-i686'
p1762
ss(S'description'
p1763
g134
NS'4kc-malta'
p1764
tp1765
(dp1766
S'hardware'
p1767
S'MIPS Malta'
p1768
sS'hardware-long'
p1769
S'MIPS Malta boards'
p1770
ss(g103
g238
g105
tp1771
(dp1772
g108
I01
sg109
(lp1773
S'powerpc64le'
p1774
ass(S'image'
p1775
g553
NS'sparc64'
p1776
tp1777
(dp1778
S'configs'
p1779
(lp1780
S'kernelarch-sparc/config-up'
p1781
asstp1782
Rp1783
.