ccopy_reg
_reconstructor
p0
(cdebian_linux.config
ConfigCore
p1
c__builtin__
dict
p2
(dp3
(Vimage
p4
Vamd64
p5
tp6
(dp7
Vinstall-stem
p8
Vvmlinuz
p9
sVconfigs
p10
(lp11
sVbootloaders
p12
(lp13
Vgrub-pc
p14
aVgrub-efi
p15
aVextlinux
p16
ass(Vdescription
p17
NVrt
p18
tp19
(dp20
Vpart-long-rt
p21
VThis kernel includes the PREEMPT_RT realtime patch set.
p22
sVparts
p23
(lp24
Vrt
p25
asVpart-short-rt
p26
VPREEMPT_RT
p27
ss(Vbase
p28
g5
Vnone
p29
tp30
(dp31
Vflavours
p32
(lp33
Vamd64
p34
ass(Vimage
p35
Vpowerpcspe
p36
tp37
(dp38
Vsuggests
p39
Vmkvmlinuz
p40
sVinstall-stem
p41
Vvmlinux
p42
ss(Vdescription
p43
Varmel
p44
NVkirkwood
p45
tp46
(dp47
Vhardware
p48
VMarvell Kirkwood
p49
sVhardware-long
p50
VMarvell Kirkwood based systems (SheevaPlug, QNAP TS-119/TS-219, etc)
p51
ss(Vdescription
p52
Vmipsel
p53
NVsb1-bcm91250a
p54
tp55
(dp56
Vhardware
p57
VBCM91250A
p58
sVhardware-long
p59
VBroadcom BCM91250A systems (aka SWARM)
p60
ss(Vimage
p61
Via64
p62
tp63
(dp64
Vsuggests
p65
Vfdutils
p66
sVbootloaders
p67
(lp68
Velilo
p69
asVinstall-stem
p70
Vvmlinuz
p71
ss(Vdescription
p72
Vmips64el
p73
NVsb1-bcm91250a
p74
tp75
(dp76
Vhardware
p77
VBCM91250A
p78
sVhardware-long
p79
VBroadcom BCM91250A systems (aka SWARM)
p80
ss(Vimage
p81
Vpowerpc
p82
NVpowerpc-smp
p83
tp84
(dp85
Vconfigs
p86
(lp87
Vpowerpc/config.powerpc
p88
aVpowerpc/config.powerpc-smp
p89
ass(Vdescription
p90
g5
g29
Vamd64
p91
tp92
(dp93
Vparts
p94
(lp95
Vxen
p96
ass(S'base'
p97
Vppc64
p98
S'none'
p99
tp100
(dp101
S'implicit-flavour'
p102
I01
sS'flavours'
p103
(lp104
Vpowerpc64
p105
ass(Vimage
p106
g73
NVocteon
p107
tp108
(dp109
Vconfigs
p110
(lp111
Vkernelarch-mips/config.octeon
p112
ass(Vimage
p113
g73
NVsb1-bcm91250a
p114
tp115
(dp116
Vconfigs
p117
(lp118
Vkernelarch-mips/config.sb1-bcm91250a
p119
ass(Vimage
p120
Vs390
p121
NVs390x
p122
tp123
(dp124
Vconfigs
p125
(lp126
Vkernelarch-s390/config-arch-64
p127
ass(g97
Vmips
p128
g99
tp129
(dp130
g102
I01
sg103
(lp131
Vr4k-ip22
p132
aVr5k-ip32
p133
aVsb1-bcm91250a
p134
aV4kc-malta
p135
aV5kc-malta
p136
aVocteon
p137
ass(Vdescription
p138
Vi386
p139
Vnone
p140
Vamd64
p141
tp142
(dp143
Vparts
p144
(lp145
Vxen
p146
ass(Vbase
p147
Valpha
p148
tp149
(dp150
Vkernel-arch
p151
Valpha
p152
sS'featuresets'
p153
(lp154
g99
ass(Vabi
p155
g44
NVorion5x
p156
tp157
(dp158
Vignore-changes
p159
(lp160
V__ring_buffer_alloc
p161
aVdcookie_register
p162
aVdcookie_unregister
p163
aVget_dcookie
p164
aVprof_on
p165
aVprofile_event_register
p166
aVprofile_event_unregister
p167
aVprofile_hits
p168
aVring_buffer_alloc_read_page
p169
aVring_buffer_bytes_cpu
p170
aVring_buffer_change_overwrite
p171
aVring_buffer_commit_overrun_cpu
p172
aVring_buffer_consume
p173
aVring_buffer_discard_commit
p174
aVring_buffer_dropped_events_cpu
p175
aVring_buffer_empty
p176
aVring_buffer_empty_cpu
p177
aVring_buffer_entries
p178
aVring_buffer_entries_cpu
p179
aVring_buffer_event_data
p180
aVring_buffer_event_length
p181
aVring_buffer_free
p182
aVring_buffer_free_read_page
p183
aVring_buffer_iter_empty
p184
aVring_buffer_iter_peek
p185
aVring_buffer_iter_reset
p186
aVring_buffer_lock_reserve
p187
aVring_buffer_normalize_time_stamp
p188
aVring_buffer_oldest_event_ts
p189
aVring_buffer_overrun_cpu
p190
aVring_buffer_overruns
p191
aVring_buffer_peek
p192
aVring_buffer_read
p193
aVring_buffer_read_events_cpu
p194
aVring_buffer_read_finish
p195
aVring_buffer_read_page
p196
aVring_buffer_read_prepare
p197
aVring_buffer_read_prepare_sync
p198
aVring_buffer_read_start
p199
aVring_buffer_record_disable
p200
aVring_buffer_record_disable_cpu
p201
aVring_buffer_record_enable
p202
aVring_buffer_record_enable_cpu
p203
aVring_buffer_record_off
p204
aVring_buffer_record_on
p205
aVring_buffer_reset
p206
aVring_buffer_reset_cpu
p207
aVring_buffer_resize
p208
aVring_buffer_size
p209
aVring_buffer_swap_cpu
p210
aVring_buffer_time_stamp
p211
aVring_buffer_unlock_commit
p212
aVring_buffer_write
p213
aVtask_handoff_register
p214
aVtask_handoff_unregister
p215
aVtrace_clock_local
p216
ass(Vdescription
p217
Vmips64
p218
NVocteon
p219
tp220
(dp221
Vhardware
p222
VOcteon
p223
sVhardware-long
p224
VCavium Networks Octeon
p225
ss(g97
Varmhf
p226
g99
tp227
(dp228
g102
I01
sg103
(lp229
Vrpi
p230
ass(Vimage
p231
Vppc64el
p232
NVpowerpc64le
p233
tp234
(dp235
Vconfigs
p236
(lp237
Vkernelarch-powerpc/config-arch-64
p238
aVkernelarch-powerpc/config-arch-64-le
p239
ass(Vbase
p240
g139
Vrt
p241
tp242
(dp243
Vflavours
p244
(lp245
V686-pae
p246
ass(Vimage
p247
g73
NV5kc-malta
p248
tp249
(dp250
Vconfigs
p251
(lp252
Vkernelarch-mips/config.5kc-malta
p253
ass(Vimage
p254
g232
tp255
(dp256
Vsuggests
p257
Vmkvmlinuz
p258
sVconfigs
p259
(lp260
sVinstall-stem
p261
Vvmlinux
p262
ss(Vimage
p263
g128
NV4kc-malta
p264
tp265
(dp266
Vconfigs
p267
(lp268
Vkernelarch-mips/config.4kc-malta
p269
ass(Vrelations
p270
g139
tp271
(dp272
Vheaders%gcc-4.8
p273
Vlinux-compiler-gcc-4.8-x86
p274
ss(Vimage
p275
g82
tp276
(dp277
Vsuggests
p278
Vmkvmlinuz
p279
sVconfigs
p280
(lp281
sVinstall-stem
p282
Vvmlinux
p283
ss(Vimage
p284
g44
NVkirkwood
p285
tp286
(dp287
Vcheck-size
p288
V2097080
p289
sVbreaks
p290
Vflash-kernel (<< 3.14~)
p291
sVrecommends
p292
Vu-boot-tools
p293
ss(Vdescription
p294
Vsh4
p295
NVsh7785lcr
p296
tp297
(dp298
Vhardware
p299
Vsh7785lcr
p300
sVhardware-long
p301
VRenesas SH7785 reference board
p302
ss(Vbase
p303
g5
Vrt
p304
tp305
(dp306
Vflavours
p307
(lp308
Vamd64
p309
ass(Vbuild
p310
g232
tp311
(dp312
Vimage-file
p313
Vvmlinux
p314
ss(Vbuild
p315
g98
tp316
(dp317
Vimage-file
p318
Vvmlinux
p319
ss(Vdescription
p320
g218
NV5kc-malta
p321
tp322
(dp323
Vhardware
p324
VMIPS Malta
p325
sVhardware-long
p326
VMIPS Malta boards
p327
ss(Vbase
p328
Varm64
p329
tp330
(dp331
Vkernel-arch
p332
Varm64
p333
sVfeaturesets
p334
(lp335
Vnone
p336
ass(Vbase
p337
g139
tp338
(dp339
Vkernel-arch
p340
Vx86
p341
sVfeaturesets
p342
(lp343
Vnone
p344
aVrt
p345
ass(Vbase
p346
g53
tp347
(dp348
Vkernel-arch
p349
Vmips
p350
sg153
(lp351
g99
ass(Vrelations
p352
g5
tp353
(dp354
Vheaders%gcc-4.8
p355
Vlinux-compiler-gcc-4.8-x86
p356
ss(Vbase
p357
tp358
(dp359
Varches
p360
(lp361
Valpha
p362
aVamd64
p363
aVarm64
p364
aVarmel
p365
aVarmhf
p366
aVhppa
p367
aVi386
p368
aVia64
p369
aVm68k
p370
aVmips
p371
aVmipsel
p372
aVmips64
p373
aVmips64el
p374
aVor1k
p375
aVpowerpc
p376
aVpowerpcspe
p377
aVppc64
p378
aVppc64el
p379
aVs390
p380
aVs390x
p381
aVsh4
p382
aVsparc
p383
aVsparc64
p384
aVx32
p385
asVfeaturesets
p386
(lp387
Vnone
p388
aVrt
p389
asVcompiler
p390
Vgcc-4.8
p391
ss(Vimage
p392
g128
NVocteon
p393
tp394
(dp395
Vconfigs
p396
(lp397
Vkernelarch-mips/config.octeon
p398
ass(Vdescription
p399
g226
NVrpi
p400
tp401
(dp402
Vhardware
p403
VRaspberryPI
p404
sVhardware-long
p405
VRaspberry PI
p406
ss(Vdescription
p407
g139
NV686-pae
p408
tp409
(dp410
Vhardware
p411
Vmodern PCs
p412
sVparts
p413
(lp414
Vpae
p415
asVhardware-long
p416
VPCs with one or more processors supporting PAE
p417
ss(Vimage
p418
g128
NVr4k-ip22
p419
tp420
(dp421
Vconfigs
p422
(lp423
Vkernelarch-mips/config.r4k-ip22
p424
ass(Vrelations
p425
g121
tp426
(dp427
Vheaders%gcc-4.8
p428
Vlinux-compiler-gcc-4.8-s390
p429
ss(g97
g53
g99
tp430
(dp431
g102
I01
sg103
(lp432
Vsb1-bcm91250a
p433
aV4kc-malta
p434
aV5kc-malta
p435
aVloongson-2e
p436
aVloongson-2f
p437
aVloongson-3
p438
ass(Vimage
p439
g53
NVloongson-2e
p440
tp441
(dp442
Vconfigs
p443
(lp444
Vkernelarch-mips/config.loongson-2e
p445
ass(Vdescription
p446
g36
tp447
(dp448
Vhardware
p449
V32-bit PowerPC with SPE (instead of AltiVec) with SMP support
p450
ss(Vdescription
p451
g73
NV5kc-malta
p452
tp453
(dp454
Vhardware
p455
VMIPS Malta
p456
sVhardware-long
p457
VMIPS Malta boards
p458
ss(Vrelations
p459
tp460
(dp461
Vgcc-4.8
p462
Vgcc-4.8
p463
sVinitramfs-fallback
p464
Vlinux-initramfs-tool
p465
sVgcc-4.7
p466
Vgcc-4.7
p467
sVgcc-4.6
p468
Vgcc-4.6
p469
sVgcc-4.4
p470
Vgcc-4.4
p471
sVinitramfs-tools
p472
Vinitramfs-tools (>= 0.110~)
p473
ss(Vbuild
p474
Vm68k
p475
tp476
(dp477
Vimage-file
p478
Vvmlinux.gz
p479
ss(Vimage
p480
g226
tp481
(dp482
Vsuggests
p483
Vfdutils
p484
sVconfigs
p485
(lp486
Vkernelarch-arm/config
p487
aVarmhf/config
p488
asVinstall-stem
p489
Vvmlinuz
p490
ss(Vbuild
p491
g36
tp492
(dp493
Vimage-file
p494
Vvmlinux
p495
ss(Vdescription
p496
g232
NVpowerpc64le
p497
tp498
(dp499
Vhardware
p500
VLittle-endian 64-bit PowerPC
p501
ss(g97
g295
g99
tp502
(dp503
g102
I01
sg103
(lp504
Vsh7751r
p505
aVsh7785lcr
p506
ass(Vbuild
p507
Vhppa
p508
tp509
(dp510
Vimage-file
p511
Vvmlinux
p512
ss(Vbase
p513
g508
NVparisc64-smp
p514
tp515
(dp516
Voverride-host-type
p517
Vhppa64-linux-gnu
p518
sVcflags
p519
V-fno-cse-follow-jumps
p520
ss(Vbase
p521
g44
tp522
(dp523
Vkernel-arch
p524
Varm
p525
sg153
(lp526
g99
ass(Vbuild
p527
g329
tp528
(dp529
Vdebug-info
p530
I01
sVimage-file
p531
Varch/arm64/boot/Image
p532
ss(Vbase
p533
Vsparc
p534
tp535
(dp536
Vkernel-arch
p537
Vsparc
p538
sg153
(lp539
g99
ass(Vbase
p540
g36
tp541
(dp542
Vkernel-arch
p543
Vpowerpc
p544
sg153
(lp545
g99
ass(Vrelations
p546
g226
tp547
(dp548
Vheaders%gcc-4.8
p549
Vlinux-compiler-gcc-4.8-arm
p550
ss(Vdescription
p551
g53
NVloongson-3
p552
tp553
(dp554
Vhardware
p555
VLoongson 3A/3B
p556
sVhardware-long
p557
VLoongson 3A or 3B based systems (e.g. from Loongson or Lemote)
p558
ss(Vabi
p559
Ng18
tp560
(dp561
Vignore-changes
p562
(lp563
V*
p564
ass(g97
g121
g99
tp565
(dp566
g102
I01
sg103
(lp567
Vs390x
p568
ass(Vbuild
p569
g128
tp570
(dp571
Vimage-file
p572
Vvmlinux
p573
ss(g97
Vs390x
p574
g99
tp575
(dp576
g102
I01
sg103
(lp577
Vs390x
p578
ass(Vbase
p579
g128
tp580
(dp581
Vkernel-arch
p582
Vmips
p583
sg153
(lp584
g99
ass(Vbuild
p585
g5
tp586
(dp587
Vdebug-info
p588
I01
sVimage-file
p589
Varch/x86/boot/bzImage
p590
ss(Vimage
p591
g139
NV586
p592
tp593
(dp594
Vconfigs
p595
(lp596
Vkernelarch-x86/config-arch-32
p597
aVi386/config.586
p598
ass(Vbuild
p599
g534
tp600
(dp601
Vimage-file
p602
Varch/sparc/boot/zImage
p603
ss(Vimage
p604
g53
tp605
(dp606
Vinstall-stem
p607
Vvmlinux
p608
ss(Vdescription
p609
Vsparc64
p610
NVsparc64
p611
tp612
(dp613
Vhardware
p614
Vuniprocessor 64-bit UltraSPARC
p615
ss(Vbuild
p616
g82
tp617
(dp618
Vimage-file
p619
Vvmlinux
p620
ss(Vdescription
p621
g128
NV5kc-malta
p622
tp623
(dp624
Vhardware
p625
VMIPS Malta (64-bit)
p626
sVhardware-long
p627
VMIPS Malta boards (64-bit)
p628
ss(Vbase
p629
g73
tp630
(dp631
Vkernel-arch
p632
Vmips
p633
sg153
(lp634
g99
ass(Vbuild
p635
g53
tp636
(dp637
Vimage-file
p638
Vvmlinux
p639
ss(Vbase
p640
g218
tp641
(dp642
Vkernel-arch
p643
Vmips
p644
sg153
(lp645
g99
ass(Vimage
p646
g53
NVloongson-2f
p647
tp648
(dp649
Vconfigs
p650
(lp651
Vkernelarch-mips/config.loongson-2f
p652
asVrecommends
p653
Vlibc6-loongson2f
p654
ss(Vbase
p655
g5
tp656
(dp657
Vkernel-arch
p658
Vx86
p659
sVfeaturesets
p660
(lp661
Vnone
p662
aVrt
p663
ass(Vbase
p664
g62
tp665
(dp666
Vkernel-arch
p667
Via64
p668
sg153
(lp669
g99
asVcompiler
p670
Vgcc-4.6
p671
ss(Vdescription
p672
g53
NV5kc-malta
p673
tp674
(dp675
Vhardware
p676
VMIPS Malta (64-bit)
p677
sVhardware-long
p678
VMIPS Malta boards (64-bit)
p679
ss(Vbase
p680
g475
tp681
(dp682
Vkernel-arch
p683
Vm68k
p684
sg153
(lp685
g99
asVcflags
p686
V-ffreestanding
p687
sVcompiler
p688
Vgcc-4.8
p689
ss(Vabi
p690
g44
NVkirkwood
p691
tp692
(dp693
Vignore-changes
p694
(lp695
Vzs_create_pool
p696
aVzs_destroy_pool
p697
aVzs_free
p698
aVzs_get_total_size_bytes
p699
aVzs_malloc
p700
aVzs_map_object
p701
aVzs_unmap_object
p702
aVfips_enabled
p703
aVdcookie_register
p704
aVdcookie_unregister
p705
aVget_dcookie
p706
aVprof_on
p707
aVprofile_event_register
p708
aVprofile_event_unregister
p709
aVprofile_hits
p710
aVring_buffer_swap_cpu
p711
aVtask_handoff_register
p712
aVtask_handoff_unregister
p713
aVdisable_kprobe
p714
aVenable_kprobe
p715
aVjprobe_return
p716
aVprofile_hits
p717
aVregister_jprobe
p718
aVregister_jprobes
p719
aVregister_kprobe
p720
aVregister_kprobes
p721
aVregister_kretprobe
p722
aVregister_kretprobes
p723
aVunregister_jprobe
p724
aVunregister_jprobes
p725
aVunregister_kprobe
p726
aVunregister_kprobes
p727
aVunregister_kretprobe
p728
aVunregister_kretprobes
p729
ass(Vbase
p730
g121
tp731
(dp732
Vkernel-arch
p733
Vs390
p734
sg153
(lp735
g99
ass(g97
g44
g99
tp736
(dp737
g102
I01
sg103
(lp738
Vixp4xx
p739
aVkirkwood
p740
aVorion5x
p741
aVversatile
p742
ass(Vdescription
p743
g139
tp744
(dp745
Vpart-long-pae
p746
VThis kernel requires PAE (Physical Address Extension).\u000aThis feature is supported by the Intel Pentium Pro/II/III/4/4M/D, Xeon,\u000aCore and Atom; AMD Geode NX, Athlon (K7), Duron, Opteron, Sempron,\u000aTurion or Phenom; Transmeta Efficeon; VIA C7; and some other processors.
p747
ss(Vdescription
p748
g82
NVpowerpc
p749
tp750
(dp751
Vhardware
p752
Vuniprocessor 32-bit PowerPC
p753
ss(Vimage
p754
g53
NVsb1-bcm91250a
p755
tp756
(dp757
Vconfigs
p758
(lp759
Vkernelarch-mips/config.sb1-bcm91250a
p760
ass(Vimage
p761
g53
NV4kc-malta
p762
tp763
(dp764
Vconfigs
p765
(lp766
Vkernelarch-mips/config.4kc-malta
p767
ass(Vimage
p768
g610
NVsparc64-smp
p769
tp770
(dp771
Vconfigs
p772
(lp773
Vkernelarch-sparc/config-smp
p774
ass(Vbuild
p775
g73
tp776
(dp777
Vimage-file
p778
Vvmlinux
p779
ss(Vxen
p780
g5
g29
Vamd64
p781
tp782
(dp783
Vflavours
p784
(lp785
Vamd64
p786
ass(Vimage
p787
g44
tp788
(dp789
Vsuggests
p790
Vfdutils
p791
sVconfigs
p792
(lp793
Vkernelarch-arm/config
p794
aVarmel/config
p795
asVinstall-stem
p796
Vvmlinuz
p797
ss(Vimage
p798
g121
tp799
(dp800
Vinstall-stem
p801
Vvmlinuz
p802
sVconfigs
p803
(lp804
sVbootloaders
p805
(lp806
Vs390-tools
p807
ass(Vimage
p808
g574
NVs390x
p809
tp810
(dp811
Vconfigs
p812
(lp813
Vkernelarch-s390/config-arch-64
p814
ass(Vrelations
p815
g44
tp816
(dp817
Vheaders%gcc-4.8
p818
Vlinux-compiler-gcc-4.8-arm
p819
ss(Vimage
p820
g508
tp821
(dp822
Vsuggests
p823
Vpalo
p824
sVinstall-stem
p825
Vvmlinux
p826
ss(Vbuild
p827
g226
NVrpi
p828
tp829
(dp830
Vimage-file
p831
Varch/arm/boot/zImage
p832
ss(Vimage
p833
g73
NVloongson-3
p834
tp835
(dp836
Vconfigs
p837
(lp838
Vkernelarch-mips/config.loongson-3
p839
ass(g97
g218
g99
tp840
(dp841
g102
I01
sg103
(lp842
Vsb1-bcm91250a
p843
aV5kc-malta
p844
aVocteon
p845
ass(Vrelations
p846
g508
tp847
(dp848
Vgcc-4.8
p849
Vgcc-4.8, binutils-hppa64, gcc-4.8-hppa64
p850
ss(Vdescription
p851
g44
NVorion5x
p852
tp853
(dp854
Vhardware
p855
VMarvell Orion
p856
sVhardware-long
p857
VMarvell Orion 5181, 5182 and 5281 based systems (QNAP TS-109/TS-209, etc)
p858
ss(Vdescription
p859
g44
NVixp4xx
p860
tp861
(dp862
Vhardware
p863
VIXP4xx
p864
sVhardware-long
p865
VIXP4xx based systems (Linksys NSLU2, etc)
p866
ss(Vdescription
p867
g148
NValpha-smp
p868
tp869
(dp870
Vhardware
p871
VAlpha SMP
p872
sVhardware-long
p873
VDEC Alpha SMP systems with extended kernel start address (Wildfire, Titan, Marvel)
p874
ss(Vimage
p875
g5
NVamd64
p876
tp877
(dp878
Vconfigs
p879
(lp880
Vkernelarch-x86/config-arch-64
p881
ass(Vimage
p882
g98
tp883
(dp884
Vsuggests
p885
Vmkvmlinuz
p886
sVconfigs
p887
(lp888
sVinstall-stem
p889
Vvmlinux
p890
ss(Vdescription
p891
g139
NV586
p892
tp893
(dp894
Vhardware
p895
Volder PCs
p896
sVparts
p897
(lp898
Vup
p899
asVhardware-long
p900
VPCs with a single processor not supporting PAE
p901
ss(g97
g508
g99
tp902
(dp903
g102
I01
sg103
(lp904
Vparisc
p905
aVparisc64-smp
p906
ass(Vimage
p907
g148
tp908
(dp909
Vsuggests
p910
Vaboot, fdutils
p911
sVinstall-stem
p912
Vvmlinuz
p913
ss(Vimage
p914
g128
NVsb1-bcm91250a
p915
tp916
(dp917
Vconfigs
p918
(lp919
Vkernelarch-mips/config.sb1-bcm91250a
p920
ass(Vbase
p921
g610
tp922
(dp923
Vkernel-arch
p924
Vsparc
p925
sg153
(lp926
g99
ass(Vimage
p927
g98
NVpowerpc64
p928
tp929
(dp930
Vconfigs
p931
(lp932
Vkernelarch-powerpc/config-arch-64
p933
aVkernelarch-powerpc/config-arch-64-be
p934
ass(Vbase
p935
Vor1k
p936
tp937
(dp938
Vkernel-arch
p939
Vopenrisc
p940
sVfeaturesets
p941
(lp942
ss(S'version'
p943
tp944
(dp945
S'abiname'
p946
V3.16.0-4
p947
sS'source'
p948
V3.16.51-2rpi1
p949
sS'abiname_base'
p950
S'3.16.0'
p951
sS'upstream'
p952
S'3.16'
p953
ss(Vdescription
p954
g82
NVpowerpc-smp
p955
tp956
(dp957
Vhardware
p958
Vmultiprocessor 32-bit PowerPC
p959
ss(Vbase
p960
g574
tp961
(dp962
Vkernel-arch
p963
Vs390
p964
sg153
(lp965
g99
ass(Vdescription
p966
g226
NVarmmp
p967
tp968
(dp969
Vhardware
p970
VARMv7 multiplatform compatible SoCs
p971
sVhardware-long
p972
VARMv7 multiplatform kernel. See\u000ahttps://wiki.debian.org/DebianKernel/ARMMP for details of supported\u000aplatforms
p973
ss(g97
g73
g99
tp974
(dp975
g102
I01
sg103
(lp976
Vsb1-bcm91250a
p977
aV5kc-malta
p978
aVloongson-3
p979
aVocteon
p980
ass(Vdescription
p981
g62
NVmckinley
p982
tp983
(dp984
Vhardware
p985
VItanium II
p986
ss(Vdescription
p987
g610
NVsparc64-smp
p988
tp989
(dp990
Vhardware
p991
Vmultiprocessor 64-bit UltraSPARC
p992
ss(Vimage
p993
g128
tp994
(dp995
Vinstall-stem
p996
Vvmlinux
p997
ss(Vimage
p998
g139
tp999
(dp1000
Vinstall-stem
p1001
Vvmlinuz
p1002
sVconfigs
p1003
(lp1004
sVbootloaders
p1005
(lp1006
Vgrub-pc
p1007
aVextlinux
p1008
ass(g97
g534
g99
tp1009
(dp1010
g102
I01
sg103
(lp1011
Vsparc64
p1012
aVsparc64-smp
p1013
ass(Vrelations
p1014
g82
tp1015
(dp1016
Vgcc-4.8
p1017
Vgcc-4.8 (>= 4.8.2-21)
p1018
ss(g97
g148
g99
tp1019
(dp1020
g102
I01
sg103
(lp1021
Valpha-generic
p1022
aValpha-smp
p1023
ass(Vdescription
p1024
g5
NVamd64
p1025
tp1026
(dp1027
Vhardware
p1028
V64-bit PCs
p1029
sVhardware-long
p1030
VPCs with AMD64, Intel 64 or VIA Nano processors
p1031
ss(Vbase
p1032
Vx32
p1033
tp1034
(dp1035
Vkernel-arch
p1036
Vx86
p1037
sVfeaturesets
p1038
(lp1039
ss(Vbase
p1040
g98
tp1041
(dp1042
Vkernel-arch
p1043
Vpowerpc
p1044
sg153
(lp1045
g99
ass(Vdescription
p1046
g534
NVsparc64
p1047
tp1048
(dp1049
Vhardware
p1050
Vuniprocessor 64-bit UltraSPARC
p1051
ss(Vimage
p1052
g44
NVorion5x
p1053
tp1054
(dp1055
Vcheck-size
p1056
V1572792
p1057
sVconfigs
p1058
(lp1059
Varmel/config-reduced
p1060
aVarmel/config.orion5x
p1061
asVrecommends
p1062
Vu-boot-tools
p1063
ss(Vimage
p1064
g218
NVsb1-bcm91250a
p1065
tp1066
(dp1067
Vconfigs
p1068
(lp1069
Vkernelarch-mips/config.sb1-bcm91250a
p1070
ass(Vdescription
p1071
g534
NVsparc64-smp
p1072
tp1073
(dp1074
Vhardware
p1075
Vmultiprocessor 64-bit UltraSPARC
p1076
ss(Vbase
p1077
g508
tp1078
(dp1079
Vkernel-arch
p1080
Vparisc
p1081
sg153
(lp1082
g99
ass(Vbuild
p1083
g148
tp1084
(dp1085
Vimage-file
p1086
Varch/alpha/boot/vmlinux.gz
p1087
ss(Vimage
p1088
g82
NVpowerpc64
p1089
tp1090
(dp1091
Vconfigs
p1092
(lp1093
Vkernelarch-powerpc/config-arch-64
p1094
aVkernelarch-powerpc/config-arch-64-be
p1095
ass(Vdescription
p1096
g139
g140
V686-pae
p1097
tp1098
(dp1099
Vparts
p1100
(lp1101
Vxen
p1102
ass(Vimage
p1103
g218
tp1104
(dp1105
Vinstall-stem
p1106
Vvmlinux
p1107
ss(Vimage
p1108
g128
NVr5k-ip32
p1109
tp1110
(dp1111
Vconfigs
p1112
(lp1113
Vkernelarch-mips/config.r5k-ip32
p1114
ass(Vimage
p1115
g226
NVarmmp-lpae
p1116
tp1117
(dp1118
Vconfigs
p1119
(lp1120
Varmhf/config.armmp
p1121
aVarmhf/config.lpae
p1122
ass(Vdescription
p1123
g508
NVparisc
p1124
tp1125
(dp1126
Vhardware
p1127
V32-bit PA-RISC
p1128
sVhardware-long
p1129
VHP PA-RISC 32-bit systems with max 4 GB RAM
p1130
ss(Vimage
p1131
g329
NVarm64
p1132
tp1133
(dp1134
s(g97
g62
g99
tp1135
(dp1136
g102
I01
sg103
(lp1137
Vitanium
p1138
aVmckinley
p1139
ass(Vbuild
p1140
g295
tp1141
(dp1142
Vimage-file
p1143
Varch/sh/boot/zImage
p1144
ss(Vimage
p1145
g475
tp1146
(dp1147
Vsuggests
p1148
Vvmelilo, fdutils
p1149
sVinstall-stem
p1150
Vvmlinuz
p1151
ss(Vdescription
p1152
g226
NVarmmp-lpae
p1153
tp1154
(dp1155
Vhardware
p1156
VARMv7 multiplatform compatible SoCs supporting LPAE
p1157
sVhardware-long
p1158
VARMv7 multiplatform kernel supporting LPAE. See\u000ahttps://wiki.debian.org/DebianKernel/ARMMP for details of supported\u000aplatforms.
p1159
ss(Vbase
p1160
g329
Vnone
p1161
tp1162
(dp1163
Vflavours
p1164
(lp1165
Varm64
p1166
ass(Vimage
p1167
g218
NV5kc-malta
p1168
tp1169
(dp1170
Vconfigs
p1171
(lp1172
Vkernelarch-mips/config.5kc-malta
p1173
ass(Vbuild
p1174
g218
tp1175
(dp1176
Vimage-file
p1177
Vvmlinux
p1178
ss(Vbuild
p1179
g226
tp1180
(dp1181
Vimage-file
p1182
Varch/arm/boot/zImage
p1183
ss(Vdescription
p1184
g53
NV4kc-malta
p1185
tp1186
(dp1187
Vhardware
p1188
VMIPS Malta
p1189
sVhardware-long
p1190
VMIPS Malta boards
p1191
ss(Vbuild
p1192
g62
tp1193
(dp1194
Vimage-file
p1195
Vvmlinux.gz
p1196
ss(Vbase
p1197
g226
tp1198
(dp1199
Vkernel-arch
p1200
Varm
p1201
sg153
(lp1202
g99
ass(Vdescription
p1203
g128
NVsb1-bcm91250a
p1204
tp1205
(dp1206
Vhardware
p1207
VBCM91250A
p1208
sVhardware-long
p1209
VBroadcom BCM91250A systems (aka SWARM)
p1210
ss(Vimage
p1211
g295
tp1212
(dp1213
Vsuggests
p1214
Vfdutils
p1215
sVinstall-stem
p1216
Vvmlinuz
p1217
ss(Vbase
p1218
g82
tp1219
(dp1220
Vkernel-arch
p1221
Vpowerpc
p1222
sg153
(lp1223
g99
ass(Vbase
p1224
NVrt
p1225
tp1226
(dp1227
Venabled
p1228
I00
ss(Vbuild
p1229
g574
tp1230
(dp1231
Vimage-file
p1232
Varch/s390/boot/image
p1233
ss(Vdescription
p1234
g128
NVr4k-ip22
p1235
tp1236
(dp1237
Vhardware
p1238
VSGI IP22
p1239
sVhardware-long
p1240
VSGI IP22 systems (Indy, Indigo2)
p1241
ss(Vbase
p1242
g295
tp1243
(dp1244
Vkernel-arch
p1245
Vsh
p1246
sg153
(lp1247
g99
ass(Vdescription
p1248
g121
NVs390x
p1249
tp1250
(dp1251
Vhardware
p1252
VIBM zSeries
p1253
ss(Vimage
p1254
g534
tp1255
(dp1256
Vsuggests
p1257
Vsilo, fdutils
p1258
sVconfigs
p1259
(lp1260
sVinstall-stem
p1261
Vvmlinuz
p1262
ss(Vdescription
p1263
tp1264
(dp1265
Vpart-long-up
p1266
VThis kernel is not suitable for SMP (multi-processor,\u000amulti-core or hyper-threaded) systems.
p1267
sVpart-long-xen
p1268
VThis kernel also runs on a Xen hypervisor.\u000aIt supports both privileged (dom0) and unprivileged (domU) operation.
p1269
ss(Vbuild
p1270
g610
tp1271
(dp1272
Vimage-file
p1273
Varch/sparc/boot/zImage
p1274
ss(Vdescription
p1275
g329
NVarm64
p1276
tp1277
(dp1278
Vhardware
p1279
V64-bit ARMv8 machines
p1280
ss(Vimage
p1281
g53
NV5kc-malta
p1282
tp1283
(dp1284
Vconfigs
p1285
(lp1286
Vkernelarch-mips/config.5kc-malta
p1287
ass(Vdescription
p1288
g508
NVparisc64-smp
p1289
tp1290
(dp1291
Vhardware
p1292
Vmultiprocessor 64-bit PA-RISC
p1293
sVhardware-long
p1294
VHP PA-RISC 64-bit SMP systems with support for more than 4 GB RAM
p1295
ss(Vbuild
p1296
g574
NVs390x
p1297
tp1298
(dp1299
Vdebug-info
p1300
I01
ss(Vimage
p1301
g610
tp1302
(dp1303
Vsuggests
p1304
Vsilo, fdutils
p1305
sVconfigs
p1306
(lp1307
sVinstall-stem
p1308
Vvmlinuz
p1309
ss(Vrelations
p1310
g574
tp1311
(dp1312
Vheaders%gcc-4.8
p1313
Vlinux-compiler-gcc-4.8-s390
p1314
ss(Vrelations
p1315
g98
tp1316
(dp1317
Vgcc-4.8
p1318
Vgcc-4.8 (>= 4.8.2-21)
p1319
ss(Vdescription
p1320
g128
NVr5k-ip32
p1321
tp1322
(dp1323
Vhardware
p1324
VSGI IP32
p1325
sVhardware-long
p1326
VSGI IP32 systems (O2)
p1327
ss(Vimage
p1328
g574
tp1329
(dp1330
Vinstall-stem
p1331
Vvmlinuz
p1332
sVconfigs
p1333
(lp1334
sVbootloaders
p1335
(lp1336
Vs390-tools
p1337
ass(Vbuild
p1338
g121
NVs390x
p1339
tp1340
(dp1341
Vdebug-info
p1342
I01
ss(Vimage
p1343
g534
NVsparc64-smp
p1344
tp1345
(dp1346
Vconfigs
p1347
(lp1348
Vkernelarch-sparc/config-smp
p1349
ass(Vimage
p1350
g53
NVloongson-3
p1351
tp1352
(dp1353
Vconfigs
p1354
(lp1355
Vkernelarch-mips/config.loongson-3
p1356
ass(Vbuild
p1357
g121
tp1358
(dp1359
Vimage-file
p1360
Varch/s390/boot/image
p1361
ss(Vdescription
p1362
g475
NVm68k
p1363
tp1364
(dp1365
Vhardware
p1366
VMotorola MC68020+ family
p1367
ss(Vimage
p1368
g534
NVsparc32
p1369
tp1370
(dp1371
Vimage-postproc
p1372
Vsparc32-image-postproc
p1373
ss(Vabi
p1374
tp1375
(dp1376
Vabiname
p1377
V4
p1378
sVignore-changes
p1379
(lp1380
Vmodule:arch/x86/kvm/kvm
p1381
aVmodule:arch/powerpc/kvm/kvm
p1382
aVmodule:drivers/md/dm-snapshot
p1383
aVmodule:drivers/misc/mei/*
p1384
aVmodule:drivers/mtd/spi-nor/spi-nor
p1385
aVmodule:drivers/net/can/can-dev
p1386
aVmodule:drivers/net/ethernet/**
p1387
aVmodule:drivers/net/wireless/**
p1388
aVmodule:drivers/s390/net/qeth
p1389
aVmodule:drivers/s390/net/qeth*
p1390
aVmodule:drivers/scsi/cxgbi/*
p1391
aVmodule:drivers/scsi/libiscs*
p1392
aVmodule:drivers/scsi/qla2xxx/qla2xxx
p1393
aVmodule:drivers/target/iscsi/iscsi_target_mod
p1394
aVmodule:drivers/target/target_core_mod
p1395
aVmodule:drivers/usb/musb/*
p1396
aVmodule:net/ceph/libceph
p1397
aVmodule:net/l2tp/*
p1398
aVmodule:net/rds/rds
p1399
aVmodule:sound/firewire/snd-firewire-lib
p1400
aVmodule:sound/i2c/other/snd-ak4113
p1401
aVmodule:sound/i2c/other/snd-ak4114
p1402
aVmodule:sound/pci/emu10k1/*
p1403
aVazx_alloc_cmd_io
p1404
aVazx_free_cmd_io
p1405
aVazx_get_response
p1406
aVazx_init_cmd_io
p1407
aVazx_send_cmd
p1408
aVcan_rx_register
p1409
aVcpuidle_*
p1410
aVinet_frag_*
p1411
aVinet_frags_*
p1412
aVkvm_async_pf_task_wait
p1413
aVkvmppc_*
p1414
aVmusb_*
p1415
aVperf_trace_*
p1416
aVtcp_make_synack
p1417
aVtcp_parse_options
p1418
aVtcp_try_fastopen
p1419
aV__add_pages
p1420
aV__remove_pages
p1421
aVnf_register_queue_handler
p1422
aVof_device_is_stdout_path
p1423
aVmodule:sound/soc/*
p1424
aVblk_rq_check_limits
p1425
aVclk_divider_ro_ops
p1426
aVtick_nohz_idle_enter
p1427
aVtick_nohz_idle_exit
p1428
aVskb_copy_and_csum_datagram_iovec
p1429
aVmodule:net/dccp/dccp
p1430
aVfl6_*
p1431
aVinet_sk_diag_fill
p1432
aVip6_append_data
p1433
aVip6_datagram_send_ctl
p1434
aVip6_xmit
p1435
aVipv6_dup_options
p1436
aVipv6_fixup_options
p1437
aVipv6_push_nfrag_opts
p1438
aVtcp_cong_avoid_ai
p1439
aVtcp_slow_start
p1440
aV__scm_destroy
p1441
aV__scm_send
p1442
aVscm_detach_fds
p1443
aVscm_fp_dup
p1444
aVaf_alg_*
p1445
aVxt_compat_match_from_user
p1446
aVefivar_validate
p1447
aVzpci_disable_device
p1448
aVzpci_enable_device
p1449
aVzpci_stop_device
p1450
aVfsnotify_*_group
p1451
aVfsnotify_*_mark
p1452
aVmodule:drivers/infiniband/**
p1453
ass(Vimage
p1454
g139
NVamd64
p1455
tp1456
(dp1457
Vconfigs
p1458
(lp1459
Vkernelarch-x86/config-arch-64
p1460
asVrecommends
p1461
Vlibc6-i686
p1462
ss(Vdescription
p1463
g574
NVs390x
p1464
tp1465
(dp1466
Vhardware
p1467
VIBM zSeries
p1468
ss(g97
g36
g99
tp1469
(dp1470
g102
I01
sg103
(lp1471
Vpowerpcspe
p1472
ass(g97
g475
g99
tp1473
(dp1474
g102
I01
sg103
(lp1475
Vm68k
p1476
ass(Vdescription
p1477
g534
NVsparc32
p1478
tp1479
(dp1480
Vhardware
p1481
Vuniprocessor sparc32 (sun4m)
p1482
ss(Vbase
p1483
g139
g140
tp1484
(dp1485
Vflavours
p1486
(lp1487
V586
p1488
aV686-pae
p1489
aVamd64
p1490
ass(Vimage
p1491
g218
NVocteon
p1492
tp1493
(dp1494
Vconfigs
p1495
(lp1496
Vkernelarch-mips/config.octeon
p1497
ass(Vdescription
p1498
g139
NVamd64
p1499
tp1500
(dp1501
Vhardware
p1502
V64-bit PCs
p1503
sVparts
p1504
(lp1505
Vxen
p1506
asVhardware-long
p1507
VPCs with AMD64, Intel 64 or VIA Nano processors
p1508
ss(Vimage
p1509
g128
NV5kc-malta
p1510
tp1511
(dp1512
Vconfigs
p1513
(lp1514
Vkernelarch-mips/config.5kc-malta
p1515
ass(Vdescription
p1516
g73
NVloongson-3
p1517
tp1518
(dp1519
Vhardware
p1520
VLoongson 3A/3B
p1521
sVhardware-long
p1522
VLoongson 3A or 3B based systems (e.g. from Loongson or Lemote)
p1523
ss(Vbuild
p1524
g44
tp1525
(dp1526
Vimage-file
p1527
Varch/arm/boot/zImage
p1528
ss(g97
g82
g99
tp1529
(dp1530
g102
I01
sg103
(lp1531
Vpowerpc
p1532
aVpowerpc-smp
p1533
aVpowerpc64
p1534
ass(Vimage
p1535
g73
tp1536
(dp1537
Vinstall-stem
p1538
Vvmlinux
p1539
ss(Vimage
p1540
g610
NVsparc64
p1541
tp1542
(dp1543
Vconfigs
p1544
(lp1545
Vkernelarch-sparc/config-up
p1546
ass(Vbase
p1547
g232
tp1548
(dp1549
Vkernel-arch
p1550
Vpowerpc
p1551
sg153
(lp1552
g99
ass(Vdescription
p1553
g295
NVsh7751r
p1554
tp1555
(dp1556
Vhardware
p1557
Vsh7751r
p1558
sVhardware-long
p1559
VRenesas SH7751R R2D plus board
p1560
ss(Vdescription
p1561
g148
NValpha-generic
p1562
tp1563
(dp1564
Vhardware
p1565
VAlpha
p1566
sVhardware-long
p1567
VDEC Alpha systems with extended kernel start address (Wildfire, Titan, Marvel)
p1568
ss(Vdescription
p1569
g53
NVloongson-2f
p1570
tp1571
(dp1572
Vhardware
p1573
VLoongson 2F
p1574
sVhardware-long
p1575
VLemote Loongson 2F systems
p1576
ss(Vimage
p1577
tp1578
(dp1579
Vinitramfs-generators
p1580
(lp1581
Vinitramfs-tools
p1582
aVinitramfs-fallback
p1583
asVtype
p1584
Vplain
p1585
ss(Vabi
p1586
g44
NVixp4xx
p1587
tp1588
(dp1589
Vignore-changes
p1590
(lp1591
V__ring_buffer_alloc
p1592
aVdcookie_register
p1593
aVdcookie_unregister
p1594
aVget_dcookie
p1595
aVprof_on
p1596
aVprofile_event_register
p1597
aVprofile_event_unregister
p1598
aVprofile_hits
p1599
aVring_buffer_alloc_read_page
p1600
aVring_buffer_bytes_cpu
p1601
aVring_buffer_change_overwrite
p1602
aVring_buffer_commit_overrun_cpu
p1603
aVring_buffer_consume
p1604
aVring_buffer_discard_commit
p1605
aVring_buffer_dropped_events_cpu
p1606
aVring_buffer_empty
p1607
aVring_buffer_empty_cpu
p1608
aVring_buffer_entries
p1609
aVring_buffer_entries_cpu
p1610
aVring_buffer_event_data
p1611
aVring_buffer_event_length
p1612
aVring_buffer_free
p1613
aVring_buffer_free_read_page
p1614
aVring_buffer_iter_empty
p1615
aVring_buffer_iter_peek
p1616
aVring_buffer_iter_reset
p1617
aVring_buffer_lock_reserve
p1618
aVring_buffer_normalize_time_stamp
p1619
aVring_buffer_oldest_event_ts
p1620
aVring_buffer_overrun_cpu
p1621
aVring_buffer_overruns
p1622
aVring_buffer_peek
p1623
aVring_buffer_read
p1624
aVring_buffer_read_events_cpu
p1625
aVring_buffer_read_finish
p1626
aVring_buffer_read_page
p1627
aVring_buffer_read_prepare
p1628
aVring_buffer_read_prepare_sync
p1629
aVring_buffer_read_start
p1630
aVring_buffer_record_disable
p1631
aVring_buffer_record_disable_cpu
p1632
aVring_buffer_record_enable
p1633
aVring_buffer_record_enable_cpu
p1634
aVring_buffer_record_off
p1635
aVring_buffer_record_on
p1636
aVring_buffer_reset
p1637
aVring_buffer_reset_cpu
p1638
aVring_buffer_resize
p1639
aVring_buffer_size
p1640
aVring_buffer_swap_cpu
p1641
aVring_buffer_time_stamp
p1642
aVring_buffer_unlock_commit
p1643
aVring_buffer_write
p1644
aVtask_handoff_register
p1645
aVtask_handoff_unregister
p1646
aVtrace_clock_local
p1647
ass(Vdescription
p1648
g53
NVloongson-2e
p1649
tp1650
(dp1651
Vhardware
p1652
VLoongson 2E
p1653
sVhardware-long
p1654
VLemote Loongson 2E systems
p1655
ss(g97
g610
g99
tp1656
(dp1657
g102
I01
sg103
(lp1658
Vsparc64
p1659
aVsparc64-smp
p1660
ass(Vdescription
p1661
g218
NVsb1-bcm91250a
p1662
tp1663
(dp1664
Vhardware
p1665
VBCM91250A
p1666
sVhardware-long
p1667
VBroadcom BCM91250A systems (aka SWARM)
p1668
ss(Vdescription
p1669
g128
NVocteon
p1670
tp1671
(dp1672
Vhardware
p1673
VOcteon
p1674
sVhardware-long
p1675
VCavium Networks Octeon
p1676
ss(Vdescription
p1677
g98
NVpowerpc64
p1678
tp1679
(dp1680
Vhardware
p1681
V64-bit PowerPC
p1682
ss(Vdescription
p1683
g44
NVversatile
p1684
tp1685
(dp1686
Vhardware
p1687
VVersatile
p1688
sVhardware-long
p1689
VVersatile systems (PB, AB, Qemu)
p1690
ss(Vbuild
p1691
g139
tp1692
(dp1693
Vimage-file
p1694
Varch/x86/boot/bzImage
p1695
ss(Vdescription
p1696
g73
NVocteon
p1697
tp1698
(dp1699
Vhardware
p1700
VOcteon
p1701
sVhardware-long
p1702
VCavium Networks Octeon
p1703
ss(Vimage
p1704
g295
NVsh7785lcr
p1705
tp1706
(dp1707
Vcheck-size
p1708
V4194304
p1709
sVrecommends
p1710
Vu-boot-tools
p1711
ss(Vdescription
p1712
g62
NVitanium
p1713
tp1714
(dp1715
Vhardware
p1716
VItanium
p1717
ss(Vimage
p1718
g329
tp1719
(dp1720
Vinstall-stem
p1721
Vvmlinuz
p1722
ss(Vbuild
p1723
g139
NV686-pae
p1724
tp1725
(dp1726
Vdebug-info
p1727
I01
ss(Vdescription
p1728
g82
NVpowerpc64
p1729
tp1730
(dp1731
Vhardware
p1732
V64-bit PowerPC
p1733
ss(Vimage
p1734
g44
NVixp4xx
p1735
tp1736
(dp1737
Vcheck-size
p1738
V1441760
p1739
sVconfigs
p1740
(lp1741
Varmel/config-reduced
p1742
aVarmel/config.ixp4xx
p1743
ass(Vimage
p1744
g139
NV686-pae
p1745
tp1746
(dp1747
Vconfigs
p1748
(lp1749
Vkernelarch-x86/config-arch-32
p1750
aVi386/config.686-pae
p1751
asVrecommends
p1752
Vlibc6-i686
p1753
ss(Vdescription
p1754
g128
NV4kc-malta
p1755
tp1756
(dp1757
Vhardware
p1758
VMIPS Malta
p1759
sVhardware-long
p1760
VMIPS Malta boards
p1761
ss(g97
g232
g99
tp1762
(dp1763
g102
I01
sg103
(lp1764
Vpowerpc64le
p1765
ass(Vimage
p1766
g534
NVsparc64
p1767
tp1768
(dp1769
Vconfigs
p1770
(lp1771
Vkernelarch-sparc/config-up
p1772
asstp1773
Rp1774
.