cdebian_linux.config
ConfigCore
p0
(tRp1
(Vabi
p2
tp3
(dp4
Vabiname
p5
V5
p6
sVignore-changes
p7
(lp8
V__cpuhp_*
p9
aV__xive_vm_h_*
p10
aVbpf_analyzer
p11
aVcxl_*
p12
aVdax_flush
p13
aVieee80211_nullfunc_get
p14
aVinet_add_protocol
p15
aVinet_del_protocol
p16
aViommu_device_*
p17
aVkvm_async_pf_task_wait
p18
aVkvmppc_*
p19
aVmm_iommu_*
p20
aVmv_mbus_*
p21
aVperf_*
p22
aVregister_cxl_calls
p23
aVregister_key_type
p24
aVunregister_cxl_calls
p25
aV*_hw_breakpoint
p26
aVmodule:arch/x86/kvm/*
p27
aVmodule:drivers/crypto/ccp/*
p28
aVmodule:drivers/hv/*
p29
aVmodule:drivers/gpu/drm/sun4i/*
p30
aVmodule:drivers/iio/**
p31
aVmodule:drivers/misc/cxl/*
p32
aVmodule:drivers/mtd/nand/*
p33
aVmodule:drivers/net/ethernet/**
p34
aVmodule:drivers/net/wireless/**
p35
aVmodule:drivers/nvdimm/*
p36
aVmodule:drivers/power/supply/bq27xxx_battery
p37
aVmodule:drivers/scsi/cxgbi/*
p38
aVmodule:drivers/scsi/libiscs*
p39
aVmodule:drivers/scsi/qla2xxx/qla2xxx
p40
aVmodule:drivers/scsi/ufs/*
p41
aVmodule:drivers/target/**
p42
aVmodule:drivers/usb/chipidea/**
p43
aVmodule:drivers/usb/gadget/**
p44
aVmodule:drivers/usb/host/**
p45
aVmodule:drivers/usb/musb/**
p46
aVmodule:fs/nfs/**
p47
aVmodule:net/ceph/libceph
p48
aVmodule:net/l2tp/**
p49
aVmodule:net/rxrpc/rxrpc
p50
aVmodule:net/sctp/**
p51
aVmodule:sound/core/seq/**
p52
aVmodule:sound/firewire/snd-firewire-lib
p53
aVmodule:sound/pci/hda/*
p54
aVbtree_*
p55
aVvisitor*
p56
aVcan_rx_register
p57
aVip6_xmit
p58
aVmodule:net/dccp/dccp
p59
aVmodule:net/rds/rds
p60
aVdevfreq_*
p61
aVdevm_devfreq_*
p62
aVupdate_devfreq
p63
aVmodule:drivers/infiniband/**
p64
aVacpi_ec_add_query_handler
p65
aVacpi_ec_remove_query_handler
p66
aVfirst_ec
p67
aVdebugfs_create_automount
p68
aVmodule:drivers/iio/imu/inv_mpu6050/*
p69
aVdrm_crtc_accurate_vblank_count
p70
aVacpi_nfit_desc_init
p71
aVacpi_nfit_init
p72
aVloop_register_transfer
p73
aVxen_xlate_*
p74
aVnf_nat_masquerade_ipv4_register_notifier
p75
aVnf_nat_masquerade_ipv6_register_notifier
p76
ass(Vbase
p77
tp78
(dp79
Varches
p80
(lp81
Valpha
p82
aVamd64
p83
aVarm64
p84
aVarm64ilp32
p85
aVarmel
p86
aVarmhf
p87
aVhppa
p88
aVi386
p89
aVia64
p90
aVm68k
p91
aVmips
p92
aVmips64
p93
aVmips64el
p94
aVmips64r6
p95
aVmips64r6el
p96
aVmipsel
p97
aVmipsn32
p98
aVmipsn32el
p99
aVmipsn32r6
p100
aVmipsn32r6el
p101
aVmipsr6
p102
aVmipsr6el
p103
aVpowerpc
p104
aVpowerpcspe
p105
aVppc64
p106
aVppc64el
p107
aVriscv64
p108
aVs390
p109
aVs390x
p110
aVsh3
p111
aVsh4
p112
aVsparc
p113
aVsparc64
p114
aVx32
p115
asVcompiler
p116
Vgcc-8
p117
sVfeaturesets
p118
(lp119
Vnone
p120
aVrt
p121
ass(Vbuild
p122
tp123
(dp124
Vdebug-info
p125
I00
sVsigned-code
p126
I00
ss(Vbase
p127
NVrt
p128
tp129
(dp130
Venabled
p131
I00
ss(Vdescription
p132
tp133
(dp134
Vpart-long-up
p135
VThis kernel is not suitable for SMP (multi-processor,\u000amulti-core or hyper-threaded) systems.
p136
ss(Vimage
p137
tp138
(dp139
Vinitramfs-generators
p140
(lp141
Vinitramfs-tools
p142
aVinitramfs-fallback
p143
asVrecommends
p144
(lp145
Vapparmor
p146
ass(Vrelations
p147
tp148
(dp149
Vgcc-8
p150
Vgcc-8 <!stage1 !cross !pkg.linux.nokernel>, gcc-8-@gnu-type-package@ <!stage1 cross !pkg.linux.nokernel>
p151
sVinitramfs-fallback
p152
Vlinux-initramfs-tool
p153
sVinitramfs-tools
p154
Vinitramfs-tools (>= 0.120+deb8u2)
p155
ss(Vpackages
p156
tp157
(dp158
Vinstaller
p159
I00
ss(Vbase
p160
Valpha
p161
tp162
(dp163
Vkernel-arch
p164
Valpha
p165
sVfeaturesets
p166
(lp167
Vnone
p168
ass(Vbuild
p169
g161
tp170
(dp171
Vimage-file
p172
Varch/alpha/boot/vmlinux.gz
p173
ss(Vimage
p174
g161
tp175
(dp176
Vsuggests
p177
(lp178
Vaboot
p179
aVfdutils
p180
asVinstall-stem
p181
Vvmlinuz
p182
ss(Vdescription
p183
g161
NValpha-generic
p184
tp185
(dp186
Vhardware
p187
VAlpha
p188
sVhardware-long
p189
VDEC Alpha systems with extended kernel start address (Wildfire, Titan, Marvel)
p190
ss(Vdescription
p191
g161
NValpha-smp
p192
tp193
(dp194
Vhardware
p195
VAlpha SMP
p196
sVhardware-long
p197
VDEC Alpha SMP systems with extended kernel start address (Wildfire, Titan, Marvel)
p198
ss(Vbase
p199
g161
g168
tp200
(dp201
Vflavours
p202
(lp203
Valpha-generic
p204
aValpha-smp
p205
asVimplicit-flavour
p206
I01
ss(Vbase
p207
Vamd64
p208
tp209
(dp210
Vfeaturesets
p211
(lp212
Vnone
p213
aVrt
p214
asVkernel-arch
p215
Vx86
p216
ss(Vbuild
p217
g208
tp218
(dp219
Vdebug-info
p220
I01
sVimage-file
p221
Varch/x86/boot/bzImage
p222
sVsigned-code
p223
I01
sVvdso
p224
I01
ss(Vimage
p225
g208
tp226
(dp227
Vbootloaders
p228
(lp229
Vgrub-pc
p230
aVgrub-efi-amd64
p231
aVextlinux
p232
asVinstall-stem
p233
Vvmlinuz
p234
sVbreaks
p235
(lp236
Vxserver-xorg-input-vmmouse (<< 1:13.0.99)
p237
ass(Vrelations
p238
g208
tp239
(dp240
Vgcc-8
p241
Vgcc-8 (>= 8-20180123-1~) <!stage1 !cross !pkg.linux.nokernel>, gcc-8-x86-64-linux-gnu (>= 8-20180123-1~) <!stage1 cross !pkg.linux.nokernel>
p242
sVheaders%gcc-8
p243
Vlinux-compiler-gcc-8-x86
p244
ss(Vdescription
p245
g208
NVamd64
p246
tp247
(dp248
Vhardware
p249
V64-bit PCs
p250
sVhardware-long
p251
VPCs with AMD64, Intel 64 or VIA Nano processors
p252
ss(Vdescription
p253
g208
NVcloud-amd64
p254
tp255
(dp256
Vhardware
p257
Vx86-64 cloud
p258
sVhardware-long
p259
VAmazon EC2, Google Compute Engine and Microsoft Azure cloud platforms
p260
ss(Vbase
p261
g208
Vnone
p262
tp263
(dp264
Vflavours
p265
(lp266
Vamd64
p267
aVcloud-amd64
p268
ass(Vbase
p269
g208
Vrt
p270
tp271
(dp272
Vflavours
p273
(lp274
Vamd64
p275
ass(Vbase
p276
Varm64
p277
tp278
(dp279
Vkernel-arch
p280
Varm64
p281
sVfeaturesets
p282
(lp283
Vnone
p284
aVrt
p285
ass(Vbuild
p286
g277
tp287
(dp288
Vdebug-info
p289
I01
sVimage-file
p290
Varch/arm64/boot/Image
p291
sVsigned-code
p292
I01
sVvdso
p293
I01
ss(Vimage
p294
g277
tp295
(dp296
Vinstall-stem
p297
Vvmlinuz
p298
sVbreaks
p299
(lp300
Vlibmozjs185-1.0
p301
aVlibmozjs-24-0 (<< 24.2.0-5.1~)
p302
ass(Vdescription
p303
g277
NVarm64
p304
tp305
(dp306
Vhardware
p307
V64-bit ARMv8 machines
p308
ss(Vimage
p309
g277
NVarm64
p310
tp311
(dp312
s(Vbase
p313
g277
Vnone
p314
tp315
(dp316
Vflavours
p317
(lp318
Varm64
p319
ass(Vbase
p320
g277
Vrt
p321
tp322
(dp323
Vflavours
p324
(lp325
Varm64
p326
ass(Vbase
p327
Varm64ilp32
p328
tp329
(dp330
Vkernel-arch
p331
Varm64
p332
sVfeaturesets
p333
(lp334
ss(Vbase
p335
Varmel
p336
tp337
(dp338
Vkernel-arch
p339
Varm
p340
sg166
(lp341
g168
ass(Vbuild
p342
g336
tp343
(dp344
Vimage-file
p345
Varch/arm/boot/zImage
p346
sVuncompressed-image-file
p347
Varch/arm/boot/Image
p348
ss(Vimage
p349
g336
tp350
(dp351
Vinstall-stem
p352
Vvmlinuz
p353
ss(Vrelations
p354
g336
tp355
(dp356
Vheaders%gcc-8
p357
Vlinux-compiler-gcc-8-arm
p358
ss(Vdescription
p359
g336
NVmarvell
p360
tp361
(dp362
Vhardware
p363
VMarvell Kirkwood/Orion
p364
sVhardware-long
p365
VMarvell Kirkwood and Orion based systems (https://wiki.debian.org/ArmEabiPort#Supported_hardware)
p366
ss(Vdescription
p367
g336
NVrpi
p368
tp369
(dp370
Vhardware
p371
VRaspberry Pi and Pi Zero
p372
sVhardware-long
p373
VRaspberry Pi, Raspberry Pi Zero based systems
p374
ss(Vimage
p375
g336
NVmarvell
p376
tp377
(dp378
Vrecommends
p379
(lp380
Vu-boot-tools
p381
asVcheck-size
p382
I2097080
sVcheck-size-with-dtb
p383
I01
sVcheck-uncompressed-size
p384
I7340032
sVbreaks
p385
(lp386
Vflash-kernel (<< 3.57~)
p387
ass(g199
g336
g168
tp388
(dp389
g202
(lp390
Vmarvell
p391
asg206
I01
ss(Vbase
p392
Varmhf
p393
tp394
(dp395
Vkernel-arch
p396
Varm
p397
sg166
(lp398
g168
ass(Vbuild
p399
g393
tp400
(dp401
Vimage-file
p402
Varch/arm/boot/zImage
p403
sVvdso
p404
I01
ss(Vimage
p405
g393
tp406
(dp407
Vinstall-stem
p408
Vvmlinuz
p409
ss(Vrelations
p410
g393
tp411
(dp412
Vheaders%gcc-8
p413
Vlinux-compiler-gcc-8-arm
p414
ss(Vdescription
p415
g393
NVarmmp
p416
tp417
(dp418
Vhardware
p419
VARMv7 multiplatform compatible SoCs
p420
sVhardware-long
p421
VARMv7 multiplatform kernel. See\u000ahttps://wiki.debian.org/DebianKernel/ARMMP for details of supported\u000aplatforms
p422
ss(Vdescription
p423
g393
NVarmmp-lpae
p424
tp425
(dp426
Vhardware
p427
VARMv7 multiplatform compatible SoCs supporting LPAE
p428
sVhardware-long
p429
VARMv7 multiplatform kernel supporting LPAE. See\u000ahttps://wiki.debian.org/DebianKernel/ARMMP for details of supported\u000aplatforms.
p430
ss(Vbuild
p431
g393
NVrpi
p432
tp433
(dp434
Vimage-file
p435
Varch/arm/boot/zImage
p436
ss(Vdescription
p437
g393
NVrpi
p438
tp439
(dp440
Vhardware
p441
VRaspberryPI
p442
sVhardware-long
p443
VRaspberry PI
p444
ss(Vimage
p445
g393
NVrpi
p446
tp447
(dp448
Vconfigs
p449
(lp450
Varmhf/config.rpi
p451
ass(Vimage
p452
g393
NVrpi2
p453
tp454
(dp455
Vconfigs
p456
(lp457
Varmhf/config.rpi2
p458
ass(Vbuild
p459
g393
NVrpi2
p460
tp461
(dp462
Vimage-file
p463
Varch/arm/boot/zImage
p464
ss(Vdescription
p465
g393
NVrpi2
p466
tp467
(dp468
Vhardware
p469
VRaspberryPI2
p470
sVhardware-long
p471
VRaspberry PI 2
p472
ss(g199
g393
g168
tp473
(dp474
g202
(lp475
Vrpi
p476
aVrpi2
p477
asg206
I01
ss(Vbase
p478
Vhppa
p479
tp480
(dp481
Vkernel-arch
p482
Vparisc
p483
sg166
(lp484
g168
ass(Vbuild
p485
g479
tp486
(dp487
Vimage-file
p488
Varch/parisc/boot/bzImage
p489
sVdebug-info
p490
I00
ss(Vimage
p491
g479
tp492
(dp493
Vsuggests
p494
(lp495
Vpalo
p496
asVinstall-stem
p497
Vvmlinuz
p498
ss(Vdescription
p499
g479
NVparisc
p500
tp501
(dp502
Vhardware
p503
V32-bit PA-RISC
p504
sVhardware-long
p505
VHP PA-RISC 32-bit systems with max 4 GB RAM
p506
ss(Vdescription
p507
g479
NVparisc-smp
p508
tp509
(dp510
Vhardware
p511
Vmultiprocessor 32-bit PA-RISC
p512
sVhardware-long
p513
VHP PA-RISC 32-bit SMP systems with max 4 GB RAM
p514
ss(Vbase
p515
g479
NVparisc64-smp
p516
tp517
(dp518
Vcflags
p519
V-fno-cse-follow-jumps
p520
sVoverride-host-type
p521
Vhppa64-linux-gnu
p522
ss(Vdescription
p523
g479
NVparisc64-smp
p524
tp525
(dp526
Vhardware
p527
Vmultiprocessor 64-bit PA-RISC
p528
sVhardware-long
p529
VHP PA-RISC 64-bit SMP systems with support for more than 4 GB RAM
p530
ss(Vrelations
p531
g479
tp532
(dp533
Vgcc-8
p534
Vgcc-8 <!stage1 !cross !pkg.linux.nokernel>, gcc-8-hppa-linux-gnu <!stage1 cross !pkg.linux.nokernel>, binutils-hppa64-linux-gnu <!stage1 !pkg.linux.nokernel>, gcc-8-hppa64-linux-gnu <!stage1 !pkg.linux.nokernel>
p535
ss(g199
g479
g168
tp536
(dp537
g202
(lp538
Vparisc
p539
aVparisc-smp
p540
aVparisc64-smp
p541
asg206
I01
ss(Vbase
p542
Vi386
p543
tp544
(dp545
Vfeaturesets
p546
(lp547
Vnone
p548
aVrt
p549
asVkernel-arch
p550
Vx86
p551
ss(Vbuild
p552
g543
tp553
(dp554
Vimage-file
p555
Varch/x86/boot/bzImage
p556
sVsigned-code
p557
I01
sVvdso
p558
I01
ss(Vdescription
p559
g543
tp560
(dp561
Vpart-long-pae
p562
VThis kernel requires PAE (Physical Address Extension).\u000aThis feature is supported by the Intel Pentium Pro/II/III/4/4M/D, Xeon,\u000aCore and Atom; AMD Geode NX, Athlon (K7), Duron, Opteron, Sempron,\u000aTurion or Phenom; Transmeta Efficeon; VIA C7; and some other processors.
p563
ss(Vimage
p564
g543
tp565
(dp566
Vbootloaders
p567
(lp568
Vgrub-pc
p569
aVgrub-efi-ia32
p570
aVextlinux
p571
asVinstall-stem
p572
Vvmlinuz
p573
sVbreaks
p574
(lp575
Vxserver-xorg-input-vmmouse (<< 1:13.0.99)
p576
ass(Vrelations
p577
g543
tp578
(dp579
Vgcc-8
p580
Vgcc-8 (>= 8-20180123-1~) <!stage1 !cross !pkg.linux.nokernel>, gcc-8-i686-linux-gnu (>= 8-20180123-1~) <!stage1 cross !pkg.linux.nokernel>
p581
sVheaders%gcc-8
p582
Vlinux-compiler-gcc-8-x86
p583
ss(Vdescription
p584
g543
NV686
p585
tp586
(dp587
Vhardware
p588
Volder PCs
p589
sVhardware-long
p590
VPCs with one or more processors not supporting PAE
p591
ss(Vbuild
p592
g543
NV686-pae
p593
tp594
(dp595
Vdebug-info
p596
I01
ss(Vdescription
p597
g543
NV686-pae
p598
tp599
(dp600
Vhardware
p601
Vmodern PCs
p602
sVhardware-long
p603
VPCs with one or more processors supporting PAE
p604
sVparts
p605
(lp606
Vpae
p607
ass(Vbase
p608
g543
Vnone
p609
tp610
(dp611
Vflavours
p612
(lp613
V686
p614
aV686-pae
p615
ass(Vbase
p616
g543
Vrt
p617
tp618
(dp619
Vflavours
p620
(lp621
V686-pae
p622
ass(Vbase
p623
Via64
p624
tp625
(dp626
Vkernel-arch
p627
Via64
p628
sg166
(lp629
g168
ass(Vbuild
p630
g624
tp631
(dp632
Vimage-file
p633
Vvmlinux.gz
p634
ss(Vimage
p635
g624
tp636
(dp637
Vbootloaders
p638
(lp639
Vgrub-efi-ia64
p640
asVinstall-stem
p641
Vvmlinuz
p642
ss(Vdescription
p643
g624
NVitanium
p644
tp645
(dp646
Vhardware
p647
VItanium (Merced)
p648
sVhardware-long
p649
Vsystems with original Itanium (Merced) processors
p650
ss(Vdescription
p651
g624
NVmckinley
p652
tp653
(dp654
Vhardware
p655
VItanium 2+
p656
sVhardware-long
p657
Vsystems with Itanium 2 or 9300/9500/9700-series processors
p658
ss(g199
g624
g168
tp659
(dp660
g202
(lp661
Vitanium
p662
aVmckinley
p663
asg206
I01
ss(Vbase
p664
Vm68k
p665
tp666
(dp667
Vcflags
p668
V-ffreestanding
p669
sVkernel-arch
p670
Vm68k
p671
sg166
(lp672
g168
ass(Vbuild
p673
g665
tp674
(dp675
Vimage-file
p676
Vvmlinux
p677
ss(Vimage
p678
g665
tp679
(dp680
Vsuggests
p681
(lp682
Vvmelilo
p683
aVfdutils
p684
asVinstall-stem
p685
Vvmlinux
p686
ss(Vdescription
p687
g665
NVm68k
p688
tp689
(dp690
Vhardware
p691
VMotorola MC68020+ family
p692
ss(g199
g665
g168
tp693
(dp694
g202
(lp695
Vm68k
p696
asg206
I01
ss(Vbase
p697
Vmips
p698
tp699
(dp700
Vkernel-arch
p701
Vmips
p702
sg166
(lp703
g168
ass(Vbuild
p704
g698
tp705
(dp706
Vimage-file
p707
Vvmlinux
p708
ss(Vimage
p709
g698
tp710
(dp711
Vinstall-stem
p712
Vvmlinux
p713
ss(Vdescription
p714
g698
NV4kc-malta
p715
tp716
(dp717
Vhardware
p718
VMIPS Malta
p719
sVhardware-long
p720
VMIPS Malta boards
p721
ss(Vimage
p722
g698
NV4kc-malta
p723
tp724
(dp725
Vconfigs
p726
(lp727
Vkernelarch-mips/config.malta
p728
aVkernelarch-mips/config.mips32r2
p729
ass(Vdescription
p730
g698
NV5kc-malta
p731
tp732
(dp733
Vhardware
p734
VMIPS Malta (64-bit)
p735
sVhardware-long
p736
VMIPS Malta boards (64-bit)
p737
ss(Vimage
p738
g698
NV5kc-malta
p739
tp740
(dp741
Vconfigs
p742
(lp743
Vkernelarch-mips/config.malta
p744
aVkernelarch-mips/config.mips64r2
p745
ass(Vdescription
p746
g698
NVocteon
p747
tp748
(dp749
Vhardware
p750
VOcteon
p751
sVhardware-long
p752
VCavium Networks Octeon
p753
ss(Vimage
p754
g698
NVocteon
p755
tp756
(dp757
Vconfigs
p758
(lp759
Vkernelarch-mips/config.octeon
p760
ass(g199
g698
g168
tp761
(dp762
g202
(lp763
V4kc-malta
p764
aV5kc-malta
p765
aVocteon
p766
asg206
I01
ss(Vbase
p767
Vmips64
p768
tp769
(dp770
Vkernel-arch
p771
Vmips
p772
sg166
(lp773
g168
ass(Vbuild
p774
g768
tp775
(dp776
Vimage-file
p777
Vvmlinux
p778
ss(Vimage
p779
g768
tp780
(dp781
Vinstall-stem
p782
Vvmlinux
p783
ss(Vdescription
p784
g768
NV5kc-malta
p785
tp786
(dp787
Vhardware
p788
VMIPS Malta
p789
sVhardware-long
p790
VMIPS Malta boards
p791
ss(Vimage
p792
g768
NV5kc-malta
p793
tp794
(dp795
Vconfigs
p796
(lp797
Vkernelarch-mips/config.malta
p798
aVkernelarch-mips/config.mips64r2
p799
ass(Vdescription
p800
g768
NVocteon
p801
tp802
(dp803
Vhardware
p804
VOcteon
p805
sVhardware-long
p806
VCavium Networks Octeon
p807
ss(Vimage
p808
g768
NVocteon
p809
tp810
(dp811
Vconfigs
p812
(lp813
Vkernelarch-mips/config.octeon
p814
ass(g199
g768
g168
tp815
(dp816
g202
(lp817
V5kc-malta
p818
aVocteon
p819
asg206
I01
ss(Vbase
p820
Vmips64el
p821
tp822
(dp823
Vkernel-arch
p824
Vmips
p825
sg166
(lp826
g168
ass(Vbuild
p827
g821
tp828
(dp829
Vimage-file
p830
Vvmlinux
p831
ss(Vimage
p832
g821
tp833
(dp834
Vinstall-stem
p835
Vvmlinux
p836
ss(Vdescription
p837
g821
NV5kc-malta
p838
tp839
(dp840
Vhardware
p841
VMIPS Malta
p842
sVhardware-long
p843
VMIPS Malta boards
p844
ss(Vimage
p845
g821
NV5kc-malta
p846
tp847
(dp848
Vconfigs
p849
(lp850
Vkernelarch-mips/config.malta
p851
aVkernelarch-mips/config.mips64r2
p852
ass(Vdescription
p853
g821
NVloongson-3
p854
tp855
(dp856
Vhardware
p857
VLoongson 3A/3B
p858
sVhardware-long
p859
VLoongson 3A or 3B based systems (e.g. from Loongson or Lemote)
p860
ss(Vimage
p861
g821
NVloongson-3
p862
tp863
(dp864
Vconfigs
p865
(lp866
Vkernelarch-mips/config.loongson-3
p867
ass(Vdescription
p868
g821
NVocteon
p869
tp870
(dp871
Vhardware
p872
VOcteon
p873
sVhardware-long
p874
VCavium Networks Octeon
p875
ss(Vimage
p876
g821
NVocteon
p877
tp878
(dp879
Vconfigs
p880
(lp881
Vkernelarch-mips/config.octeon
p882
ass(g199
g821
g168
tp883
(dp884
g202
(lp885
V5kc-malta
p886
aVloongson-3
p887
aVocteon
p888
asg206
I01
ss(Vbase
p889
Vmips64r6
p890
tp891
(dp892
Vkernel-arch
p893
Vmips
p894
sg166
(lp895
g168
ass(Vbuild
p896
g890
tp897
(dp898
Vimage-file
p899
Vvmlinux
p900
ss(Vimage
p901
g890
tp902
(dp903
Vinstall-stem
p904
Vvmlinux
p905
ss(Vdescription
p906
g890
NVmips64r6
p907
tp908
(dp909
Vhardware
p910
VMIPS R6 (64 bit, big endian)
p911
sVhardware-long
p912
VMIPS R6 (64 bit, big endian)
p913
ss(Vimage
p914
g890
NVmips64r6
p915
tp916
(dp917
Vconfigs
p918
(lp919
Vkernelarch-mips/config.boston
p920
aVkernelarch-mips/config.mips64r6
p921
ass(g199
g890
g168
tp922
(dp923
g202
(lp924
Vmips64r6
p925
asg206
I01
ss(Vbase
p926
Vmips64r6el
p927
tp928
(dp929
Vkernel-arch
p930
Vmips
p931
sg166
(lp932
g168
ass(Vbuild
p933
g927
tp934
(dp935
Vimage-file
p936
Vvmlinux
p937
ss(Vimage
p938
g927
tp939
(dp940
Vinstall-stem
p941
Vvmlinux
p942
ss(Vdescription
p943
g927
NVmips64r6el
p944
tp945
(dp946
Vhardware
p947
VMIPS R6 (64 bit, little endian)
p948
sVhardware-long
p949
VMIPS R6 (64 bit, little endian)
p950
ss(Vimage
p951
g927
NVmips64r6el
p952
tp953
(dp954
Vconfigs
p955
(lp956
Vkernelarch-mips/config.boston
p957
aVkernelarch-mips/config.mips64r6
p958
ass(g199
g927
g168
tp959
(dp960
g202
(lp961
Vmips64r6el
p962
asg206
I01
ss(Vbase
p963
Vmipsel
p964
tp965
(dp966
Vkernel-arch
p967
Vmips
p968
sg166
(lp969
g168
ass(Vbuild
p970
g964
tp971
(dp972
Vimage-file
p973
Vvmlinux
p974
ss(Vimage
p975
g964
tp976
(dp977
Vinstall-stem
p978
Vvmlinux
p979
ss(Vdescription
p980
g964
NV4kc-malta
p981
tp982
(dp983
Vhardware
p984
VMIPS Malta
p985
sVhardware-long
p986
VMIPS Malta boards
p987
ss(Vimage
p988
g964
NV4kc-malta
p989
tp990
(dp991
Vconfigs
p992
(lp993
Vkernelarch-mips/config.malta
p994
aVkernelarch-mips/config.mips32r2
p995
ass(Vdescription
p996
g964
NV5kc-malta
p997
tp998
(dp999
Vhardware
p1000
VMIPS Malta (64-bit)
p1001
sVhardware-long
p1002
VMIPS Malta boards (64-bit)
p1003
ss(Vimage
p1004
g964
NV5kc-malta
p1005
tp1006
(dp1007
Vconfigs
p1008
(lp1009
Vkernelarch-mips/config.malta
p1010
aVkernelarch-mips/config.mips64r2
p1011
ass(Vdescription
p1012
g964
NVloongson-3
p1013
tp1014
(dp1015
Vhardware
p1016
VLoongson 3A/3B
p1017
sVhardware-long
p1018
VLoongson 3A or 3B based systems (e.g. from Loongson or Lemote)
p1019
ss(Vimage
p1020
g964
NVloongson-3
p1021
tp1022
(dp1023
Vconfigs
p1024
(lp1025
Vkernelarch-mips/config.loongson-3
p1026
ass(Vdescription
p1027
g964
NVocteon
p1028
tp1029
(dp1030
Vhardware
p1031
VOcteon
p1032
sVhardware-long
p1033
VCavium Networks Octeon
p1034
ss(Vimage
p1035
g964
NVocteon
p1036
tp1037
(dp1038
Vconfigs
p1039
(lp1040
Vkernelarch-mips/config.octeon
p1041
ass(g199
g964
g168
tp1042
(dp1043
g202
(lp1044
V4kc-malta
p1045
aV5kc-malta
p1046
aVloongson-3
p1047
aVocteon
p1048
asg206
I01
ss(Vbase
p1049
Vmipsn32
p1050
tp1051
(dp1052
Vkernel-arch
p1053
Vmips
p1054
sVfeaturesets
p1055
(lp1056
ss(Vbase
p1057
Vmipsn32el
p1058
tp1059
(dp1060
Vkernel-arch
p1061
Vmips
p1062
sVfeaturesets
p1063
(lp1064
ss(Vbase
p1065
Vmipsn32r6
p1066
tp1067
(dp1068
Vkernel-arch
p1069
Vmips
p1070
sVfeaturesets
p1071
(lp1072
ss(Vbase
p1073
Vmipsn32r6el
p1074
tp1075
(dp1076
Vkernel-arch
p1077
Vmips
p1078
sVfeaturesets
p1079
(lp1080
ss(Vbase
p1081
Vmipsr6
p1082
tp1083
(dp1084
Vkernel-arch
p1085
Vmips
p1086
sg166
(lp1087
g168
ass(Vbuild
p1088
g1082
tp1089
(dp1090
Vimage-file
p1091
Vvmlinux
p1092
ss(Vimage
p1093
g1082
tp1094
(dp1095
Vinstall-stem
p1096
Vvmlinux
p1097
ss(Vdescription
p1098
g1082
NVmips32r6
p1099
tp1100
(dp1101
Vhardware
p1102
VMIPS R6 (32 bit, big endian)
p1103
sVhardware-long
p1104
VMIPS R6 (32 bit, big endian)
p1105
ss(Vimage
p1106
g1082
NVmips32r6
p1107
tp1108
(dp1109
Vconfigs
p1110
(lp1111
Vkernelarch-mips/config.boston
p1112
aVkernelarch-mips/config.mips32r6
p1113
ass(Vdescription
p1114
g1082
NVmips64r6
p1115
tp1116
(dp1117
Vhardware
p1118
VMIPS R6 (64 bit, big endian)
p1119
sVhardware-long
p1120
VMIPS R6 (64 bit, big endian)
p1121
ss(Vimage
p1122
g1082
NVmips64r6
p1123
tp1124
(dp1125
Vconfigs
p1126
(lp1127
Vkernelarch-mips/config.boston
p1128
aVkernelarch-mips/config.mips64r6
p1129
ass(g199
g1082
g168
tp1130
(dp1131
g202
(lp1132
Vmips32r6
p1133
aVmips64r6
p1134
asg206
I01
ss(Vbase
p1135
Vmipsr6el
p1136
tp1137
(dp1138
Vkernel-arch
p1139
Vmips
p1140
sg166
(lp1141
g168
ass(Vbuild
p1142
g1136
tp1143
(dp1144
Vimage-file
p1145
Vvmlinux
p1146
ss(Vimage
p1147
g1136
tp1148
(dp1149
Vinstall-stem
p1150
Vvmlinux
p1151
ss(Vdescription
p1152
g1136
NVmips32r6el
p1153
tp1154
(dp1155
Vhardware
p1156
VMIPS R6 (32 bit, little endian)
p1157
sVhardware-long
p1158
VMIPS R6 (32 bit, little endian)
p1159
ss(Vimage
p1160
g1136
NVmips32r6el
p1161
tp1162
(dp1163
Vconfigs
p1164
(lp1165
Vkernelarch-mips/config.boston
p1166
aVkernelarch-mips/config.mips32r6
p1167
ass(Vdescription
p1168
g1136
NVmips64r6el
p1169
tp1170
(dp1171
Vhardware
p1172
VMIPS R6 (64 bit, little endian)
p1173
sVhardware-long
p1174
VMIPS R6 (64 bit, little endian)
p1175
ss(Vimage
p1176
g1136
NVmips64r6el
p1177
tp1178
(dp1179
Vconfigs
p1180
(lp1181
Vkernelarch-mips/config.boston
p1182
aVkernelarch-mips/config.mips64r6
p1183
ass(g199
g1136
g168
tp1184
(dp1185
g202
(lp1186
Vmips32r6el
p1187
aVmips64r6el
p1188
asg206
I01
ss(Vbase
p1189
Vpowerpc
p1190
tp1191
(dp1192
Vkernel-arch
p1193
Vpowerpc
p1194
sg166
(lp1195
g168
ass(Vbuild
p1196
g1190
tp1197
(dp1198
Vimage-file
p1199
Vvmlinux
p1200
sVvdso
p1201
I01
ss(Vimage
p1202
g1190
tp1203
(dp1204
Vconfigs
p1205
(lp1206
sVbootloaders
p1207
(lp1208
Vgrub-ieee1275
p1209
asVsuggests
p1210
(lp1211
Vmkvmlinuz
p1212
asVinstall-stem
p1213
Vvmlinux
p1214
ss(Vdescription
p1215
g1190
NVpowerpc
p1216
tp1217
(dp1218
Vhardware
p1219
Vuniprocessor 32-bit PowerPC
p1220
ss(Vdescription
p1221
g1190
NVpowerpc-smp
p1222
tp1223
(dp1224
Vhardware
p1225
Vmultiprocessor 32-bit PowerPC
p1226
ss(Vimage
p1227
g1190
NVpowerpc-smp
p1228
tp1229
(dp1230
Vconfigs
p1231
(lp1232
Vpowerpc/config.powerpc
p1233
aVpowerpc/config.powerpc-smp
p1234
ass(Vdescription
p1235
g1190
NVpowerpc64
p1236
tp1237
(dp1238
Vhardware
p1239
V64-bit PowerPC
p1240
ss(Vimage
p1241
g1190
NVpowerpc64
p1242
tp1243
(dp1244
Vconfigs
p1245
(lp1246
Vkernelarch-powerpc/config-arch-64
p1247
aVkernelarch-powerpc/config-arch-64-be
p1248
ass(g199
g1190
g168
tp1249
(dp1250
g202
(lp1251
Vpowerpc
p1252
aVpowerpc-smp
p1253
aVpowerpc64
p1254
asg206
I01
ss(Vbase
p1255
Vpowerpcspe
p1256
tp1257
(dp1258
Vkernel-arch
p1259
Vpowerpc
p1260
sg166
(lp1261
g168
ass(Vbuild
p1262
g1256
tp1263
(dp1264
Vimage-file
p1265
Vvmlinux
p1266
sVvdso
p1267
I01
ss(Vimage
p1268
g1256
tp1269
(dp1270
Vsuggests
p1271
(lp1272
Vmkvmlinuz
p1273
asVinstall-stem
p1274
Vvmlinux
p1275
ss(Vdescription
p1276
g1256
tp1277
(dp1278
Vhardware
p1279
V32-bit PowerPC with SPE (instead of AltiVec) with SMP support
p1280
ss(g199
g1256
g168
tp1281
(dp1282
g202
(lp1283
Vpowerpcspe
p1284
asg206
I01
ss(Vbase
p1285
Vppc64
p1286
tp1287
(dp1288
Vkernel-arch
p1289
Vpowerpc
p1290
sg166
(lp1291
g168
ass(Vbuild
p1292
g1286
tp1293
(dp1294
Vimage-file
p1295
Vvmlinux
p1296
sVvdso
p1297
I01
ss(Vimage
p1298
g1286
tp1299
(dp1300
Vconfigs
p1301
(lp1302
sVbootloaders
p1303
(lp1304
Vgrub-ieee1275
p1305
asVsuggests
p1306
(lp1307
Vmkvmlinuz
p1308
asVinstall-stem
p1309
Vvmlinux
p1310
ss(Vdescription
p1311
g1286
NVpowerpc64
p1312
tp1313
(dp1314
Vhardware
p1315
V64-bit PowerPC
p1316
ss(Vimage
p1317
g1286
NVpowerpc64
p1318
tp1319
(dp1320
Vconfigs
p1321
(lp1322
Vkernelarch-powerpc/config-arch-64
p1323
aVkernelarch-powerpc/config-arch-64-be
p1324
ass(g199
g1286
g168
tp1325
(dp1326
g202
(lp1327
Vpowerpc64
p1328
asg206
I01
ss(Vbase
p1329
Vppc64el
p1330
tp1331
(dp1332
Vkernel-arch
p1333
Vpowerpc
p1334
sg166
(lp1335
g168
ass(Vbuild
p1336
g1330
tp1337
(dp1338
Vimage-file
p1339
Vvmlinux
p1340
sVvdso
p1341
I01
ss(Vimage
p1342
g1330
tp1343
(dp1344
Vconfigs
p1345
(lp1346
sVbootloaders
p1347
(lp1348
Vgrub-ieee1275
p1349
asVsuggests
p1350
(lp1351
Vmkvmlinuz
p1352
asVinstall-stem
p1353
Vvmlinux
p1354
ss(Vdescription
p1355
g1330
NVpowerpc64le
p1356
tp1357
(dp1358
Vhardware
p1359
VLittle-endian 64-bit PowerPC
p1360
ss(Vimage
p1361
g1330
NVpowerpc64le
p1362
tp1363
(dp1364
Vconfigs
p1365
(lp1366
Vkernelarch-powerpc/config-arch-64
p1367
aVkernelarch-powerpc/config-arch-64-le
p1368
ass(g199
g1330
g168
tp1369
(dp1370
g202
(lp1371
Vpowerpc64le
p1372
asg206
I01
ss(Vbase
p1373
Vriscv64
p1374
tp1375
(dp1376
Vkernel-arch
p1377
Vriscv
p1378
sVfeaturesets
p1379
(lp1380
Vnone
p1381
ass(Vbuild
p1382
g1374
tp1383
(dp1384
Vimage-file
p1385
Vvmlinux
p1386
sVvdso
p1387
I01
ss(Vimage
p1388
g1374
tp1389
(dp1390
Vinstall-stem
p1391
Vvmlinux
p1392
ss(Vdescription
p1393
g1374
NVriscv64
p1394
tp1395
(dp1396
Vhardware
p1397
V64-bit RISC-V platforms
p1398
sVhardware-long
p1399
V64-bit RISC-V platforms
p1400
ss(Vbase
p1401
g1374
Vnone
p1402
tp1403
(dp1404
Vflavours
p1405
(lp1406
Vriscv64
p1407
ass(Vbase
p1408
Vs390
p1409
tp1410
(dp1411
Vkernel-arch
p1412
Vs390
p1413
sVfeaturesets
p1414
(lp1415
ss(Vbase
p1416
Vs390x
p1417
tp1418
(dp1419
Vkernel-arch
p1420
Vs390
p1421
sg166
(lp1422
g168
ass(Vbuild
p1423
g1417
tp1424
(dp1425
Vimage-file
p1426
Varch/s390/boot/bzImage
p1427
sVvdso
p1428
I01
ss(Vimage
p1429
g1417
tp1430
(dp1431
Vbootloaders
p1432
(lp1433
Vs390-tools
p1434
asVinstall-stem
p1435
Vvmlinuz
p1436
ss(Vrelations
p1437
g1417
tp1438
(dp1439
Vheaders%gcc-8
p1440
Vlinux-compiler-gcc-8-s390
p1441
ss(Vbuild
p1442
g1417
NVs390x
p1443
tp1444
(dp1445
Vdebug-info
p1446
I01
ss(Vdescription
p1447
g1417
NVs390x
p1448
tp1449
(dp1450
Vhardware
p1451
VIBM zSeries
p1452
ss(g199
g1417
g168
tp1453
(dp1454
g202
(lp1455
Vs390x
p1456
asg206
I01
ss(Vbase
p1457
Vsh3
p1458
tp1459
(dp1460
Vkernel-arch
p1461
Vsh
p1462
sVfeaturesets
p1463
(lp1464
ss(Vbase
p1465
Vsh4
p1466
tp1467
(dp1468
Vkernel-arch
p1469
Vsh
p1470
sg166
(lp1471
g168
ass(Vbuild
p1472
g1466
tp1473
(dp1474
Vimage-file
p1475
Varch/sh/boot/zImage
p1476
ss(Vimage
p1477
g1466
tp1478
(dp1479
Vinstall-stem
p1480
Vvmlinuz
p1481
ss(Vdescription
p1482
g1466
NVsh7751r
p1483
tp1484
(dp1485
Vhardware
p1486
Vsh7751r
p1487
sVhardware-long
p1488
VRenesas SH7751R R2D plus board
p1489
ss(Vdescription
p1490
g1466
NVsh7785lcr
p1491
tp1492
(dp1493
Vhardware
p1494
Vsh7785lcr
p1495
sVhardware-long
p1496
VRenesas SH7785 reference board
p1497
ss(Vimage
p1498
g1466
NVsh7785lcr
p1499
tp1500
(dp1501
Vrecommends
p1502
(lp1503
Vu-boot-tools
p1504
asVcheck-size
p1505
I4194304
ss(g199
g1466
g168
tp1506
(dp1507
g202
(lp1508
Vsh7751r
p1509
aVsh7785lcr
p1510
asg206
I01
ss(Vbase
p1511
Vsparc
p1512
tp1513
(dp1514
Vkernel-arch
p1515
Vsparc
p1516
sVfeaturesets
p1517
(lp1518
ss(Vbase
p1519
Vsparc64
p1520
tp1521
(dp1522
Vkernel-arch
p1523
Vsparc
p1524
sg166
(lp1525
g168
ass(Vbuild
p1526
g1520
tp1527
(dp1528
Vimage-file
p1529
Vvmlinux
p1530
ss(Vimage
p1531
g1520
tp1532
(dp1533
Vconfigs
p1534
(lp1535
sVbootloaders
p1536
(lp1537
Vgrub-ieee1275
p1538
asVsuggests
p1539
(lp1540
Vfdutils
p1541
asVinstall-stem
p1542
Vvmlinux
p1543
ss(Vdescription
p1544
g1520
NVsparc64
p1545
tp1546
(dp1547
Vhardware
p1548
Vuniprocessor 64-bit UltraSPARC
p1549
ss(Vimage
p1550
g1520
NVsparc64
p1551
tp1552
(dp1553
Vconfigs
p1554
(lp1555
Vkernelarch-sparc/config-up
p1556
ass(Vdescription
p1557
g1520
NVsparc64-smp
p1558
tp1559
(dp1560
Vhardware
p1561
Vmultiprocessor 64-bit UltraSPARC
p1562
ss(Vimage
p1563
g1520
NVsparc64-smp
p1564
tp1565
(dp1566
Vconfigs
p1567
(lp1568
Vkernelarch-sparc/config-smp
p1569
ass(g199
g1520
g168
tp1570
(dp1571
g202
(lp1572
Vsparc64
p1573
aVsparc64-smp
p1574
asg206
I01
ss(Vbase
p1575
Vx32
p1576
tp1577
(dp1578
Vkernel-arch
p1579
Vx86
p1580
sVfeaturesets
p1581
(lp1582
ss(Vabi
p1583
NVrt
p1584
tp1585
(dp1586
Vignore-changes
p1587
(lp1588
V*
p1589
ass(Vdescription
p1590
Ng1584
tp1591
(dp1592
Vpart-long-rt
p1593
VThis kernel includes the PREEMPT_RT realtime patch set.
p1594
sVpart-short-rt
p1595
VPREEMPT_RT
p1596
sVparts
p1597
(lp1598
Vrt
p1599
ass(Vversion
p1600
tp1601
(dp1602
Vsource
p1603
V4.19.50-1+rpi1
p1604
sVupstream
p1605
V4.19
p1606
sVabiname_base
p1607
V4.19.0
p1608
sVabiname
p1609
V4.19.0-5
p1610
ss.