ccopy_reg
_reconstructor
p0
(cdebian_linux.config
ConfigCore
p1
c__builtin__
dict
p2
(dp3
(Vimage
p4
Vamd64
p5
tp6
(dp7
Vinstall-stem
p8
Vvmlinuz
p9
sVconfigs
p10
(lp11
sVbootloaders
p12
(lp13
Vgrub-pc
p14
aVgrub-efi
p15
aVextlinux
p16
ass(Vbase
p17
Vhppa
p18
NVparisc64-smp
p19
tp20
(dp21
Voverride-host-type
p22
Vhppa64-linux-gnu
p23
sVcflags
p24
V-fno-cse-follow-jumps
p25
ss(Vbase
p26
g5
Vnone
p27
tp28
(dp29
Vflavours
p30
(lp31
Vamd64
p32
ass(Vdescription
p33
Varmel
p34
NVkirkwood
p35
tp36
(dp37
Vhardware
p38
VMarvell Kirkwood
p39
sVhardware-long
p40
VMarvell Kirkwood based systems (SheevaPlug, QNAP TS-119/TS-219, etc)
p41
ss(Vimage
p42
Vmips64el
p43
NV5kc-malta
p44
tp45
(dp46
Vconfigs
p47
(lp48
Vkernelarch-mips/config.5kc-malta
p49
ass(Vdescription
p50
Vmips
p51
NV5kc-malta
p52
tp53
(dp54
Vhardware
p55
VMIPS Malta (64-bit)
p56
sVhardware-long
p57
VMIPS Malta boards (64-bit)
p58
ss(Vimage
p59
Vmipsel
p60
NVloongson-2e
p61
tp62
(dp63
Vconfigs
p64
(lp65
Vkernelarch-mips/config.loongson-2e
p66
ass(Vimage
p67
Via64
p68
tp69
(dp70
Vsuggests
p71
Vfdutils
p72
sVbootloaders
p73
(lp74
Velilo
p75
asVinstall-stem
p76
Vvmlinuz
p77
ss(Vimage
p78
Varmhf
p79
NVarmmp-lpae
p80
tp81
(dp82
Vconfigs
p83
(lp84
Varmhf/config.armmp
p85
aVarmhf/config.lpae
p86
ass(Vbase
p87
NVrt
p88
tp89
(dp90
Venabled
p91
I00
ss(Vimage
p92
Vsparc64
p93
NVsparc64
p94
tp95
(dp96
Vconfigs
p97
(lp98
Vkernelarch-sparc/config-up
p99
ass(Vdescription
p100
g5
g27
Vamd64
p101
tp102
(dp103
Vparts
p104
(lp105
Vxen
p106
ass(Vimage
p107
g34
NVorion5x
p108
tp109
(dp110
Vcheck-size
p111
V1572792
p112
sVconfigs
p113
(lp114
Varmel/config-reduced
p115
aVarmel/config.orion5x
p116
asVrecommends
p117
Vu-boot-tools
p118
ss(Vimage
p119
Varm64
p120
NVarm64
p121
tp122
(dp123
s(Vdescription
p124
Vm68k
p125
NVm68k
p126
tp127
(dp128
Vhardware
p129
VMotorola MC68020+ family
p130
ss(S'base'
p131
Vppc64
p132
S'none'
p133
tp134
(dp135
S'implicit-flavour'
p136
I01
sS'flavours'
p137
(lp138
Vpowerpc64
p139
ass(Vdescription
p140
Vmips64
p141
NV5kc-malta
p142
tp143
(dp144
Vhardware
p145
VMIPS Malta
p146
sVhardware-long
p147
VMIPS Malta boards
p148
ss(Vdescription
p149
Vs390x
p150
NVs390x
p151
tp152
(dp153
Vhardware
p154
VIBM zSeries
p155
ss(Vdescription
p156
g34
NVversatile
p157
tp158
(dp159
Vhardware
p160
VVersatile
p161
sVhardware-long
p162
VVersatile systems (PB, AB, Qemu)
p163
ss(Vimage
p164
g51
NVocteon
p165
tp166
(dp167
Vconfigs
p168
(lp169
Vkernelarch-mips/config.octeon
p170
ass(g131
g79
g133
tp171
(dp172
g136
I01
sg137
(lp173
Vrpi
p174
ass(Vimage
p175
g60
NVsb1-bcm91250a
p176
tp177
(dp178
Vconfigs
p179
(lp180
Vkernelarch-mips/config.sb1-bcm91250a
p181
ass(Vbuild
p182
g5
tp183
(dp184
Vdebug-info
p185
I01
sVimage-file
p186
Varch/x86/boot/bzImage
p187
ss(Vdescription
p188
g79
NVarmmp
p189
tp190
(dp191
Vhardware
p192
VARMv7 multiplatform compatible SoCs
p193
sVhardware-long
p194
VARMv7 multiplatform kernel. See\u000ahttps://wiki.debian.org/DebianKernel/ARMMP for details of supported\u000aplatforms
p195
ss(g131
g141
g133
tp196
(dp197
g136
I01
sg137
(lp198
Vsb1-bcm91250a
p199
aV5kc-malta
p200
aVocteon
p201
ass(g131
g125
g133
tp202
(dp203
g136
I01
sg137
(lp204
Vm68k
p205
ass(Vimage
p206
Vppc64el
p207
tp208
(dp209
Vsuggests
p210
Vmkvmlinuz
p211
sVconfigs
p212
(lp213
sVinstall-stem
p214
Vvmlinux
p215
ss(Vdescription
p216
g43
NV5kc-malta
p217
tp218
(dp219
Vhardware
p220
VMIPS Malta
p221
sVhardware-long
p222
VMIPS Malta boards
p223
ss(g131
g207
g133
tp224
(dp225
g136
I01
sg137
(lp226
Vpowerpc64le
p227
ass(Vdescription
p228
g132
NVpowerpc64
p229
tp230
(dp231
Vhardware
p232
V64-bit PowerPC
p233
ss(Vrelations
p234
Vi386
p235
tp236
(dp237
Vheaders%gcc-4.8
p238
Vlinux-compiler-gcc-4.8-x86
p239
ss(Vimage
p240
Vpowerpc
p241
tp242
(dp243
Vsuggests
p244
Vmkvmlinuz
p245
sVconfigs
p246
(lp247
sVinstall-stem
p248
Vvmlinux
p249
ss(Vdescription
p250
g235
NV586
p251
tp252
(dp253
Vhardware
p254
Volder PCs
p255
sVparts
p256
(lp257
Vup
p258
asVhardware-long
p259
VPCs with a single processor not supporting PAE
p260
ss(Vdescription
p261
g60
NV4kc-malta
p262
tp263
(dp264
Vhardware
p265
VMIPS Malta
p266
sVhardware-long
p267
VMIPS Malta boards
p268
ss(Vbase
p269
g5
Vrt
p270
tp271
(dp272
Vflavours
p273
(lp274
Vamd64
p275
ass(Vimage
p276
Vsh4
p277
NVsh7785lcr
p278
tp279
(dp280
Vcheck-size
p281
V4194304
p282
sVrecommends
p283
Vu-boot-tools
p284
ss(Vbuild
p285
g207
tp286
(dp287
Vimage-file
p288
Vvmlinux
p289
ss(Vbuild
p290
g132
tp291
(dp292
Vimage-file
p293
Vvmlinux
p294
ss(Vdescription
p295
g34
NVixp4xx
p296
tp297
(dp298
Vhardware
p299
VIXP4xx
p300
sVhardware-long
p301
VIXP4xx based systems (Linksys NSLU2, etc)
p302
ss(Vdescription
p303
g235
Vnone
p304
Vamd64
p305
tp306
(dp307
Vparts
p308
(lp309
Vxen
p310
ass(Vbase
p311
g120
tp312
(dp313
Vkernel-arch
p314
Varm64
p315
sVfeaturesets
p316
(lp317
Vnone
p318
ass(Vdescription
p319
g43
NVsb1-bcm91250a
p320
tp321
(dp322
Vhardware
p323
VBCM91250A
p324
sVhardware-long
p325
VBroadcom BCM91250A systems (aka SWARM)
p326
ss(Vbase
p327
g235
tp328
(dp329
Vkernel-arch
p330
Vx86
p331
sVfeaturesets
p332
(lp333
Vnone
p334
aVrt
p335
ass(Vbase
p336
g60
tp337
(dp338
Vkernel-arch
p339
Vmips
p340
sS'featuresets'
p341
(lp342
g133
ass(Vdescription
p343
g120
NVarm64
p344
tp345
(dp346
Vhardware
p347
V64-bit ARMv8 machines
p348
ss(Vrelations
p349
g5
tp350
(dp351
Vheaders%gcc-4.8
p352
Vlinux-compiler-gcc-4.8-x86
p353
ss(Vdescription
p354
Vsparc
p355
NVsparc64
p356
tp357
(dp358
Vhardware
p359
Vuniprocessor 64-bit UltraSPARC
p360
ss(Vimage
p361
g235
NV686-pae
p362
tp363
(dp364
Vconfigs
p365
(lp366
Vkernelarch-x86/config-arch-32
p367
aVi386/config.686-pae
p368
asVrecommends
p369
Vlibc6-i686
p370
ss(Vdescription
p371
NVrt
p372
tp373
(dp374
Vpart-long-rt
p375
VThis kernel includes the PREEMPT_RT realtime patch set.
p376
sVparts
p377
(lp378
Vrt
p379
asVpart-short-rt
p380
VPREEMPT_RT
p381
ss(Vrelations
p382
Vs390
p383
tp384
(dp385
Vheaders%gcc-4.8
p386
Vlinux-compiler-gcc-4.8-s390
p387
ss(Vimage
p388
g93
NVsparc64-smp
p389
tp390
(dp391
Vconfigs
p392
(lp393
Vkernelarch-sparc/config-smp
p394
ass(g131
g60
g133
tp395
(dp396
g136
I01
sg137
(lp397
Vsb1-bcm91250a
p398
aV4kc-malta
p399
aV5kc-malta
p400
aVloongson-2e
p401
aVloongson-2f
p402
aVloongson-3
p403
ass(Vdescription
p404
g277
NVsh7751r
p405
tp406
(dp407
Vhardware
p408
Vsh7751r
p409
sVhardware-long
p410
VRenesas SH7751R R2D plus board
p411
ss(Vdescription
p412
Vpowerpcspe
p413
tp414
(dp415
Vhardware
p416
V32-bit PowerPC with SPE (instead of AltiVec) with SMP support
p417
ss(Vrelations
p418
tp419
(dp420
Vgcc-4.8
p421
Vgcc-4.8
p422
sVinitramfs-fallback
p423
Vlinux-initramfs-tool
p424
sVgcc-4.7
p425
Vgcc-4.7
p426
sVgcc-4.6
p427
Vgcc-4.6
p428
sVgcc-4.4
p429
Vgcc-4.4
p430
sVinitramfs-tools
p431
Vinitramfs-tools (>= 0.110~)
p432
ss(Vdescription
p433
g79
NVarmmp-lpae
p434
tp435
(dp436
Vhardware
p437
VARMv7 multiplatform compatible SoCs supporting LPAE
p438
sVhardware-long
p439
VARMv7 multiplatform kernel supporting LPAE. See\u000ahttps://wiki.debian.org/DebianKernel/ARMMP for details of supported\u000aplatforms.
p440
ss(g131
g43
g133
tp441
(dp442
g136
I01
sg137
(lp443
Vsb1-bcm91250a
p444
aV5kc-malta
p445
aVloongson-3
p446
aVocteon
p447
ass(Vimage
p448
g51
NV4kc-malta
p449
tp450
(dp451
Vconfigs
p452
(lp453
Vkernelarch-mips/config.4kc-malta
p454
ass(Vabi
p455
g34
NVkirkwood
p456
tp457
(dp458
Vignore-changes
p459
(lp460
Vzs_create_pool
p461
aVzs_destroy_pool
p462
aVzs_free
p463
aVzs_get_total_size_bytes
p464
aVzs_malloc
p465
aVzs_map_object
p466
aVzs_unmap_object
p467
aVfips_enabled
p468
aVdcookie_register
p469
aVdcookie_unregister
p470
aVget_dcookie
p471
aVprof_on
p472
aVprofile_event_register
p473
aVprofile_event_unregister
p474
aVprofile_hits
p475
aVring_buffer_swap_cpu
p476
aVtask_handoff_register
p477
aVtask_handoff_unregister
p478
aVdisable_kprobe
p479
aVenable_kprobe
p480
aVjprobe_return
p481
aVprofile_hits
p482
aVregister_jprobe
p483
aVregister_jprobes
p484
aVregister_kprobe
p485
aVregister_kprobes
p486
aVregister_kretprobe
p487
aVregister_kretprobes
p488
aVunregister_jprobe
p489
aVunregister_jprobes
p490
aVunregister_kprobe
p491
aVunregister_kprobes
p492
aVunregister_kretprobe
p493
aVunregister_kretprobes
p494
ass(g131
g277
g133
tp495
(dp496
g136
I01
sg137
(lp497
Vsh7751r
p498
aVsh7785lcr
p499
ass(Vbuild
p500
g18
tp501
(dp502
Vimage-file
p503
Vvmlinux
p504
ss(Vdescription
p505
g93
NVsparc64
p506
tp507
(dp508
Vhardware
p509
Vuniprocessor 64-bit UltraSPARC
p510
ss(Vimage
p511
g355
NVsparc64
p512
tp513
(dp514
Vconfigs
p515
(lp516
Vkernelarch-sparc/config-up
p517
ass(Vimage
p518
g383
NVs390x
p519
tp520
(dp521
Vconfigs
p522
(lp523
Vkernelarch-s390/config-arch-64
p524
ass(Vbase
p525
g34
tp526
(dp527
Vkernel-arch
p528
Varm
p529
sg341
(lp530
g133
ass(Vimage
p531
g141
NVsb1-bcm91250a
p532
tp533
(dp534
Vconfigs
p535
(lp536
Vkernelarch-mips/config.sb1-bcm91250a
p537
ass(Vimage
p538
g43
tp539
(dp540
Vinstall-stem
p541
Vvmlinux
p542
ss(Vbase
p543
g355
tp544
(dp545
Vkernel-arch
p546
Vsparc
p547
sg341
(lp548
g133
ass(Vbase
p549
g413
tp550
(dp551
Vkernel-arch
p552
Vpowerpc
p553
sg341
(lp554
g133
ass(S'version'
p555
tp556
(dp557
S'abiname'
p558
V3.16.0-4
p559
sS'source'
p560
V3.16.43-2+deb8u3rpi1
p561
sS'abiname_base'
p562
S'3.16.0'
p563
sS'upstream'
p564
S'3.16'
p565
ss(Vdescription
p566
g18
NVparisc
p567
tp568
(dp569
Vhardware
p570
V32-bit PA-RISC
p571
sVhardware-long
p572
VHP PA-RISC 32-bit systems with max 4 GB RAM
p573
ss(g131
g383
g133
tp574
(dp575
g136
I01
sg137
(lp576
Vs390x
p577
ass(Vbuild
p578
g51
tp579
(dp580
Vimage-file
p581
Vvmlinux
p582
ss(Vdescription
p583
g51
NVr5k-ip32
p584
tp585
(dp586
Vhardware
p587
VSGI IP32
p588
sVhardware-long
p589
VSGI IP32 systems (O2)
p590
ss(Vdescription
p591
g141
NVsb1-bcm91250a
p592
tp593
(dp594
Vhardware
p595
VBCM91250A
p596
sVhardware-long
p597
VBroadcom BCM91250A systems (aka SWARM)
p598
ss(g131
g150
g133
tp599
(dp600
g136
I01
sg137
(lp601
Vs390x
p602
ass(Vbase
p603
Valpha
p604
tp605
(dp606
Vkernel-arch
p607
Valpha
p608
sg341
(lp609
g133
ass(Vdescription
p610
g241
NVpowerpc64
p611
tp612
(dp613
Vhardware
p614
V64-bit PowerPC
p615
ss(Vimage
p616
g141
NVocteon
p617
tp618
(dp619
Vconfigs
p620
(lp621
Vkernelarch-mips/config.octeon
p622
ass(Vbuild
p623
g355
tp624
(dp625
Vimage-file
p626
Varch/sparc/boot/zImage
p627
ss(Vimage
p628
g60
tp629
(dp630
Vinstall-stem
p631
Vvmlinux
p632
ss(Vimage
p633
g79
tp634
(dp635
Vsuggests
p636
Vfdutils
p637
sVconfigs
p638
(lp639
Vkernelarch-arm/config
p640
aVarmhf/config
p641
asVinstall-stem
p642
Vvmlinuz
p643
ss(Vbuild
p644
g150
NVs390x
p645
tp646
(dp647
Vdebug-info
p648
I01
ss(Vbuild
p649
g241
tp650
(dp651
Vimage-file
p652
Vvmlinux
p653
ss(Vbuild
p654
g120
tp655
(dp656
Vdebug-info
p657
I01
sVimage-file
p658
Varch/arm64/boot/Image
p659
ss(Vdescription
p660
g51
NVr4k-ip22
p661
tp662
(dp663
Vhardware
p664
VSGI IP22
p665
sVhardware-long
p666
VSGI IP22 systems (Indy, Indigo2)
p667
ss(Vbuild
p668
g60
tp669
(dp670
Vimage-file
p671
Vvmlinux
p672
ss(Vbase
p673
g141
tp674
(dp675
Vkernel-arch
p676
Vmips
p677
sg341
(lp678
g133
ass(Vbase
p679
g5
tp680
(dp681
Vkernel-arch
p682
Vx86
p683
sVfeaturesets
p684
(lp685
Vnone
p686
aVrt
p687
ass(Vbase
p688
g68
tp689
(dp690
Vkernel-arch
p691
Via64
p692
sg341
(lp693
g133
asVcompiler
p694
Vgcc-4.6
p695
ss(Vimage
p696
g43
NVsb1-bcm91250a
p697
tp698
(dp699
Vconfigs
p700
(lp701
Vkernelarch-mips/config.sb1-bcm91250a
p702
ass(Vbase
p703
g51
tp704
(dp705
Vkernel-arch
p706
Vmips
p707
sg341
(lp708
g133
ass(Vimage
p709
g43
NVocteon
p710
tp711
(dp712
Vconfigs
p713
(lp714
Vkernelarch-mips/config.octeon
p715
ass(Vdescription
p716
g51
NV4kc-malta
p717
tp718
(dp719
Vhardware
p720
VMIPS Malta
p721
sVhardware-long
p722
VMIPS Malta boards
p723
ss(Vdescription
p724
g34
NVorion5x
p725
tp726
(dp727
Vhardware
p728
VMarvell Orion
p729
sVhardware-long
p730
VMarvell Orion 5181, 5182 and 5281 based systems (QNAP TS-109/TS-209, etc)
p731
ss(Vbase
p732
g383
tp733
(dp734
Vkernel-arch
p735
Vs390
p736
sg341
(lp737
g133
ass(g131
g34
g133
tp738
(dp739
g136
I01
sg137
(lp740
Vixp4xx
p741
aVkirkwood
p742
aVorion5x
p743
aVversatile
p744
ass(Vdescription
p745
g241
NVpowerpc
p746
tp747
(dp748
Vhardware
p749
Vuniprocessor 32-bit PowerPC
p750
ss(Vdescription
p751
g93
NVsparc64-smp
p752
tp753
(dp754
Vhardware
p755
Vmultiprocessor 64-bit UltraSPARC
p756
ss(Vdescription
p757
g60
NV5kc-malta
p758
tp759
(dp760
Vhardware
p761
VMIPS Malta (64-bit)
p762
sVhardware-long
p763
VMIPS Malta boards (64-bit)
p764
ss(Vdescription
p765
g60
NVloongson-3
p766
tp767
(dp768
Vhardware
p769
VLoongson 3A/3B
p770
sVhardware-long
p771
VLoongson 3A or 3B based systems (e.g. from Loongson or Lemote)
p772
ss(Vdescription
p773
g355
NVsparc64-smp
p774
tp775
(dp776
Vhardware
p777
Vmultiprocessor 64-bit UltraSPARC
p778
ss(Vimage
p779
g60
NVloongson-3
p780
tp781
(dp782
Vconfigs
p783
(lp784
Vkernelarch-mips/config.loongson-3
p785
ass(Vdescription
p786
g235
tp787
(dp788
Vpart-long-pae
p789
VThis kernel requires PAE (Physical Address Extension).\u000aThis feature is supported by the Intel Pentium Pro/II/III/4/4M/D, Xeon,\u000aCore and Atom; AMD Geode NX, Athlon (K7), Duron, Opteron, Sempron,\u000aTurion or Phenom; Transmeta Efficeon; VIA C7; and some other processors.
p790
ss(Vimage
p791
g51
NVr5k-ip32
p792
tp793
(dp794
Vconfigs
p795
(lp796
Vkernelarch-mips/config.r5k-ip32
p797
ass(Vxen
p798
g5
g27
Vamd64
p799
tp800
(dp801
Vflavours
p802
(lp803
Vamd64
p804
ass(Vimage
p805
g34
tp806
(dp807
Vsuggests
p808
Vfdutils
p809
sVconfigs
p810
(lp811
Vkernelarch-arm/config
p812
aVarmel/config
p813
asVinstall-stem
p814
Vvmlinuz
p815
ss(Vimage
p816
g383
tp817
(dp818
Vinstall-stem
p819
Vvmlinuz
p820
sVconfigs
p821
(lp822
sVbootloaders
p823
(lp824
Vs390-tools
p825
ass(Vdescription
p826
g79
NVrpi
p827
tp828
(dp829
Vhardware
p830
VRaspberryPI
p831
sVhardware-long
p832
VRaspberry PI
p833
ss(Vrelations
p834
g34
tp835
(dp836
Vheaders%gcc-4.8
p837
Vlinux-compiler-gcc-4.8-arm
p838
ss(Vimage
p839
g18
tp840
(dp841
Vsuggests
p842
Vpalo
p843
sVinstall-stem
p844
Vvmlinux
p845
ss(Vimage
p846
g413
tp847
(dp848
Vsuggests
p849
Vmkvmlinuz
p850
sVinstall-stem
p851
Vvmlinux
p852
ss(Vrelations
p853
g18
tp854
(dp855
Vgcc-4.8
p856
Vgcc-4.8, binutils-hppa64, gcc-4.8-hppa64
p857
ss(Vimage
p858
g5
NVamd64
p859
tp860
(dp861
Vconfigs
p862
(lp863
Vkernelarch-x86/config-arch-64
p864
ass(Vdescription
p865
g604
NValpha-generic
p866
tp867
(dp868
Vhardware
p869
VAlpha
p870
sVhardware-long
p871
VDEC Alpha systems with extended kernel start address (Wildfire, Titan, Marvel)
p872
ss(Vdescription
p873
g51
NVsb1-bcm91250a
p874
tp875
(dp876
Vhardware
p877
VBCM91250A
p878
sVhardware-long
p879
VBroadcom BCM91250A systems (aka SWARM)
p880
ss(Vbase
p881
g241
tp882
(dp883
Vkernel-arch
p884
Vpowerpc
p885
sg341
(lp886
g133
ass(g131
g18
g133
tp887
(dp888
g136
I01
sg137
(lp889
Vparisc
p890
aVparisc64-smp
p891
ass(Vdescription
p892
g604
NValpha-smp
p893
tp894
(dp895
Vhardware
p896
VAlpha SMP
p897
sVhardware-long
p898
VDEC Alpha SMP systems with extended kernel start address (Wildfire, Titan, Marvel)
p899
ss(Vimage
p900
g51
NV5kc-malta
p901
tp902
(dp903
Vconfigs
p904
(lp905
Vkernelarch-mips/config.5kc-malta
p906
ass(Vimage
p907
g604
tp908
(dp909
Vsuggests
p910
Vaboot, fdutils
p911
sVinstall-stem
p912
Vvmlinuz
p913
ss(Vbase
p914
g93
tp915
(dp916
Vkernel-arch
p917
Vsparc
p918
sg341
(lp919
g133
ass(Vdescription
p920
g68
NVitanium
p921
tp922
(dp923
Vhardware
p924
VItanium
p925
ss(Vimage
p926
g51
NVr4k-ip22
p927
tp928
(dp929
Vconfigs
p930
(lp931
Vkernelarch-mips/config.r4k-ip22
p932
ass(Vimage
p933
g60
NV5kc-malta
p934
tp935
(dp936
Vconfigs
p937
(lp938
Vkernelarch-mips/config.5kc-malta
p939
ass(Vbase
p940
g150
tp941
(dp942
Vkernel-arch
p943
Vs390
p944
sg341
(lp945
g133
ass(Vabi
p946
g34
NVorion5x
p947
tp948
(dp949
Vignore-changes
p950
(lp951
V__ring_buffer_alloc
p952
aVdcookie_register
p953
aVdcookie_unregister
p954
aVget_dcookie
p955
aVprof_on
p956
aVprofile_event_register
p957
aVprofile_event_unregister
p958
aVprofile_hits
p959
aVring_buffer_alloc_read_page
p960
aVring_buffer_bytes_cpu
p961
aVring_buffer_change_overwrite
p962
aVring_buffer_commit_overrun_cpu
p963
aVring_buffer_consume
p964
aVring_buffer_discard_commit
p965
aVring_buffer_dropped_events_cpu
p966
aVring_buffer_empty
p967
aVring_buffer_empty_cpu
p968
aVring_buffer_entries
p969
aVring_buffer_entries_cpu
p970
aVring_buffer_event_data
p971
aVring_buffer_event_length
p972
aVring_buffer_free
p973
aVring_buffer_free_read_page
p974
aVring_buffer_iter_empty
p975
aVring_buffer_iter_peek
p976
aVring_buffer_iter_reset
p977
aVring_buffer_lock_reserve
p978
aVring_buffer_normalize_time_stamp
p979
aVring_buffer_oldest_event_ts
p980
aVring_buffer_overrun_cpu
p981
aVring_buffer_overruns
p982
aVring_buffer_peek
p983
aVring_buffer_read
p984
aVring_buffer_read_events_cpu
p985
aVring_buffer_read_finish
p986
aVring_buffer_read_page
p987
aVring_buffer_read_prepare
p988
aVring_buffer_read_prepare_sync
p989
aVring_buffer_read_start
p990
aVring_buffer_record_disable
p991
aVring_buffer_record_disable_cpu
p992
aVring_buffer_record_enable
p993
aVring_buffer_record_enable_cpu
p994
aVring_buffer_record_off
p995
aVring_buffer_record_on
p996
aVring_buffer_reset
p997
aVring_buffer_reset_cpu
p998
aVring_buffer_resize
p999
aVring_buffer_size
p1000
aVring_buffer_swap_cpu
p1001
aVring_buffer_time_stamp
p1002
aVring_buffer_unlock_commit
p1003
aVring_buffer_write
p1004
aVtask_handoff_register
p1005
aVtask_handoff_unregister
p1006
aVtrace_clock_local
p1007
ass(Vdescription
p1008
g68
NVmckinley
p1009
tp1010
(dp1011
Vhardware
p1012
VItanium II
p1013
ss(Vimage
p1014
g132
tp1015
(dp1016
Vsuggests
p1017
Vmkvmlinuz
p1018
sVconfigs
p1019
(lp1020
sVinstall-stem
p1021
Vvmlinux
p1022
ss(Vimage
p1023
g51
tp1024
(dp1025
Vinstall-stem
p1026
Vvmlinux
p1027
ss(Vimage
p1028
g235
tp1029
(dp1030
Vinstall-stem
p1031
Vvmlinuz
p1032
sVconfigs
p1033
(lp1034
sVbootloaders
p1035
(lp1036
Vgrub-pc
p1037
aVextlinux
p1038
ass(Vimage
p1039
g60
NVloongson-2f
p1040
tp1041
(dp1042
Vconfigs
p1043
(lp1044
Vkernelarch-mips/config.loongson-2f
p1045
asVrecommends
p1046
Vlibc6-loongson2f
p1047
ss(g131
g355
g133
tp1048
(dp1049
g136
I01
sg137
(lp1050
Vsparc64
p1051
aVsparc64-smp
p1052
ass(Vrelations
p1053
g241
tp1054
(dp1055
Vgcc-4.8
p1056
Vgcc-4.8 (>= 4.8.2-21)
p1057
ss(g131
g604
g133
tp1058
(dp1059
g136
I01
sg137
(lp1060
Valpha-generic
p1061
aValpha-smp
p1062
ass(Vdescription
p1063
g235
g304
V686-pae
p1064
tp1065
(dp1066
Vparts
p1067
(lp1068
Vxen
p1069
ass(g131
g68
g133
tp1070
(dp1071
g136
I01
sg137
(lp1072
Vitanium
p1073
aVmckinley
p1074
ass(Vbase
p1075
g132
tp1076
(dp1077
Vkernel-arch
p1078
Vpowerpc
p1079
sg341
(lp1080
g133
ass(Vimage
p1081
g235
NVamd64
p1082
tp1083
(dp1084
Vconfigs
p1085
(lp1086
Vkernelarch-x86/config-arch-64
p1087
asVrecommends
p1088
Vlibc6-i686
p1089
ss(Vbuild
p1090
g150
tp1091
(dp1092
Vimage-file
p1093
Varch/s390/boot/image
p1094
ss(Vbuild
p1095
g413
tp1096
(dp1097
Vimage-file
p1098
Vvmlinux
p1099
ss(g131
g51
g133
tp1100
(dp1101
g136
I01
sg137
(lp1102
Vr4k-ip22
p1103
aVr5k-ip32
p1104
aVsb1-bcm91250a
p1105
aV4kc-malta
p1106
aV5kc-malta
p1107
aVocteon
p1108
ass(Vbuild
p1109
g604
tp1110
(dp1111
Vimage-file
p1112
Varch/alpha/boot/vmlinux.gz
p1113
ss(Vimage
p1114
g241
NVpowerpc64
p1115
tp1116
(dp1117
Vconfigs
p1118
(lp1119
Vkernelarch-powerpc/config-arch-64
p1120
aVkernelarch-powerpc/config-arch-64-be
p1121
ass(Vimage
p1122
g141
tp1123
(dp1124
Vinstall-stem
p1125
Vvmlinux
p1126
ss(Vbuild
p1127
g79
NVrpi
p1128
tp1129
(dp1130
Vimage-file
p1131
Varch/arm/boot/zImage
p1132
ss(Vabi
p1133
Ng372
tp1134
(dp1135
Vignore-changes
p1136
(lp1137
V*
p1138
ass(Vbase
p1139
Vx32
p1140
tp1141
(dp1142
Vkernel-arch
p1143
Vx86
p1144
sVfeaturesets
p1145
(lp1146
ss(Vbuild
p1147
g277
tp1148
(dp1149
Vimage-file
p1150
Varch/sh/boot/zImage
p1151
ss(Vimage
p1152
g125
tp1153
(dp1154
Vsuggests
p1155
Vvmelilo, fdutils
p1156
sVinstall-stem
p1157
Vvmlinuz
p1158
ss(Vimage
p1159
g51
NVsb1-bcm91250a
p1160
tp1161
(dp1162
Vconfigs
p1163
(lp1164
Vkernelarch-mips/config.sb1-bcm91250a
p1165
ass(Vbase
p1166
g120
Vnone
p1167
tp1168
(dp1169
Vflavours
p1170
(lp1171
Varm64
p1172
ass(Vbuild
p1173
g141
tp1174
(dp1175
Vimage-file
p1176
Vvmlinux
p1177
ss(Vbuild
p1178
g79
tp1179
(dp1180
Vimage-file
p1181
Varch/arm/boot/zImage
p1182
ss(Vdescription
p1183
g277
NVsh7785lcr
p1184
tp1185
(dp1186
Vhardware
p1187
Vsh7785lcr
p1188
sVhardware-long
p1189
VRenesas SH7785 reference board
p1190
ss(Vbuild
p1191
g68
tp1192
(dp1193
Vimage-file
p1194
Vvmlinux.gz
p1195
ss(Vbase
p1196
g79
tp1197
(dp1198
Vkernel-arch
p1199
Varm
p1200
sg341
(lp1201
g133
ass(Vdescription
p1202
g241
NVpowerpc-smp
p1203
tp1204
(dp1205
Vhardware
p1206
Vmultiprocessor 32-bit PowerPC
p1207
ss(Vimage
p1208
g277
tp1209
(dp1210
Vsuggests
p1211
Vfdutils
p1212
sVinstall-stem
p1213
Vvmlinuz
p1214
ss(Vbuild
p1215
g383
NVs390x
p1216
tp1217
(dp1218
Vdebug-info
p1219
I01
ss(Vbase
p1220
g18
tp1221
(dp1222
Vkernel-arch
p1223
Vparisc
p1224
sg341
(lp1225
g133
ass(Vimage
p1226
g150
NVs390x
p1227
tp1228
(dp1229
Vconfigs
p1230
(lp1231
Vkernelarch-s390/config-arch-64
p1232
ass(Vimage
p1233
g355
tp1234
(dp1235
Vsuggests
p1236
Vsilo, fdutils
p1237
sVconfigs
p1238
(lp1239
sVinstall-stem
p1240
Vvmlinuz
p1241
ss(Vdescription
p1242
tp1243
(dp1244
Vpart-long-up
p1245
VThis kernel is not suitable for SMP (multi-processor,\u000amulti-core or hyper-threaded) systems.
p1246
sVpart-long-xen
p1247
VThis kernel also runs on a Xen hypervisor.\u000aIt supports both privileged (dom0) and unprivileged (domU) operation.
p1248
ss(Vbuild
p1249
g93
tp1250
(dp1251
Vimage-file
p1252
Varch/sparc/boot/zImage
p1253
ss(Vrelations
p1254
g79
tp1255
(dp1256
Vheaders%gcc-4.8
p1257
Vlinux-compiler-gcc-4.8-arm
p1258
ss(Vimage
p1259
g34
NVixp4xx
p1260
tp1261
(dp1262
Vcheck-size
p1263
V1441760
p1264
sVconfigs
p1265
(lp1266
Varmel/config-reduced
p1267
aVarmel/config.ixp4xx
p1268
ass(Vimage
p1269
g355
NVsparc64-smp
p1270
tp1271
(dp1272
Vconfigs
p1273
(lp1274
Vkernelarch-sparc/config-smp
p1275
ass(Vbase
p1276
g235
Vrt
p1277
tp1278
(dp1279
Vflavours
p1280
(lp1281
V686-pae
p1282
ass(Vimage
p1283
g93
tp1284
(dp1285
Vsuggests
p1286
Vsilo, fdutils
p1287
sVconfigs
p1288
(lp1289
sVinstall-stem
p1290
Vvmlinuz
p1291
ss(Vdescription
p1292
g60
NVsb1-bcm91250a
p1293
tp1294
(dp1295
Vhardware
p1296
VBCM91250A
p1297
sVhardware-long
p1298
VBroadcom BCM91250A systems (aka SWARM)
p1299
ss(Vrelations
p1300
g150
tp1301
(dp1302
Vheaders%gcc-4.8
p1303
Vlinux-compiler-gcc-4.8-s390
p1304
ss(Vdescription
p1305
g18
NVparisc64-smp
p1306
tp1307
(dp1308
Vhardware
p1309
Vmultiprocessor 64-bit PA-RISC
p1310
sVhardware-long
p1311
VHP PA-RISC 64-bit SMP systems with support for more than 4 GB RAM
p1312
ss(Vimage
p1313
g235
NV586
p1314
tp1315
(dp1316
Vconfigs
p1317
(lp1318
Vkernelarch-x86/config-arch-32
p1319
aVi386/config.586
p1320
ass(Vimage
p1321
g132
NVpowerpc64
p1322
tp1323
(dp1324
Vconfigs
p1325
(lp1326
Vkernelarch-powerpc/config-arch-64
p1327
aVkernelarch-powerpc/config-arch-64-be
p1328
ass(Vabi
p1329
g34
NVixp4xx
p1330
tp1331
(dp1332
Vignore-changes
p1333
(lp1334
V__ring_buffer_alloc
p1335
aVdcookie_register
p1336
aVdcookie_unregister
p1337
aVget_dcookie
p1338
aVprof_on
p1339
aVprofile_event_register
p1340
aVprofile_event_unregister
p1341
aVprofile_hits
p1342
aVring_buffer_alloc_read_page
p1343
aVring_buffer_bytes_cpu
p1344
aVring_buffer_change_overwrite
p1345
aVring_buffer_commit_overrun_cpu
p1346
aVring_buffer_consume
p1347
aVring_buffer_discard_commit
p1348
aVring_buffer_dropped_events_cpu
p1349
aVring_buffer_empty
p1350
aVring_buffer_empty_cpu
p1351
aVring_buffer_entries
p1352
aVring_buffer_entries_cpu
p1353
aVring_buffer_event_data
p1354
aVring_buffer_event_length
p1355
aVring_buffer_free
p1356
aVring_buffer_free_read_page
p1357
aVring_buffer_iter_empty
p1358
aVring_buffer_iter_peek
p1359
aVring_buffer_iter_reset
p1360
aVring_buffer_lock_reserve
p1361
aVring_buffer_normalize_time_stamp
p1362
aVring_buffer_oldest_event_ts
p1363
aVring_buffer_overrun_cpu
p1364
aVring_buffer_overruns
p1365
aVring_buffer_peek
p1366
aVring_buffer_read
p1367
aVring_buffer_read_events_cpu
p1368
aVring_buffer_read_finish
p1369
aVring_buffer_read_page
p1370
aVring_buffer_read_prepare
p1371
aVring_buffer_read_prepare_sync
p1372
aVring_buffer_read_start
p1373
aVring_buffer_record_disable
p1374
aVring_buffer_record_disable_cpu
p1375
aVring_buffer_record_enable
p1376
aVring_buffer_record_enable_cpu
p1377
aVring_buffer_record_off
p1378
aVring_buffer_record_on
p1379
aVring_buffer_reset
p1380
aVring_buffer_reset_cpu
p1381
aVring_buffer_resize
p1382
aVring_buffer_size
p1383
aVring_buffer_swap_cpu
p1384
aVring_buffer_time_stamp
p1385
aVring_buffer_unlock_commit
p1386
aVring_buffer_write
p1387
aVtask_handoff_register
p1388
aVtask_handoff_unregister
p1389
aVtrace_clock_local
p1390
ass(Vrelations
p1391
g132
tp1392
(dp1393
Vgcc-4.8
p1394
Vgcc-4.8 (>= 4.8.2-21)
p1395
ss(Vimage
p1396
g34
NVkirkwood
p1397
tp1398
(dp1399
Vcheck-size
p1400
V2097080
p1401
sVbreaks
p1402
Vflash-kernel (<< 3.14~)
p1403
sVrecommends
p1404
Vu-boot-tools
p1405
ss(Vimage
p1406
g150
tp1407
(dp1408
Vinstall-stem
p1409
Vvmlinuz
p1410
sVconfigs
p1411
(lp1412
sVbootloaders
p1413
(lp1414
Vs390-tools
p1415
ass(Vimage
p1416
g207
NVpowerpc64le
p1417
tp1418
(dp1419
Vconfigs
p1420
(lp1421
Vkernelarch-powerpc/config-arch-64
p1422
aVkernelarch-powerpc/config-arch-64-le
p1423
ass(Vimage
p1424
g141
NV5kc-malta
p1425
tp1426
(dp1427
Vconfigs
p1428
(lp1429
Vkernelarch-mips/config.5kc-malta
p1430
ass(Vimage
p1431
g60
NV4kc-malta
p1432
tp1433
(dp1434
Vconfigs
p1435
(lp1436
Vkernelarch-mips/config.4kc-malta
p1437
ass(Vbuild
p1438
g383
tp1439
(dp1440
Vimage-file
p1441
Varch/s390/boot/image
p1442
ss(Vdescription
p1443
g51
NVocteon
p1444
tp1445
(dp1446
Vhardware
p1447
VOcteon
p1448
sVhardware-long
p1449
VCavium Networks Octeon
p1450
ss(Vbuild
p1451
g43
tp1452
(dp1453
Vimage-file
p1454
Vvmlinux
p1455
ss(Vabi
p1456
tp1457
(dp1458
Vabiname
p1459
V4
p1460
sVignore-changes
p1461
(lp1462
Vmodule:arch/x86/kvm/kvm
p1463
aVmodule:arch/powerpc/kvm/kvm
p1464
aVmodule:drivers/md/dm-snapshot
p1465
aVmodule:drivers/misc/mei/*
p1466
aVmodule:drivers/mtd/spi-nor/spi-nor
p1467
aVmodule:drivers/net/can/can-dev
p1468
aVmodule:drivers/net/ethernet/**
p1469
aVmodule:drivers/net/wireless/**
p1470
aVmodule:drivers/scsi/qla2xxx/qla2xxx
p1471
aVmodule:drivers/target/iscsi/iscsi_target_mod
p1472
aVmodule:drivers/target/target_core_mod
p1473
aVmodule:drivers/usb/musb/*
p1474
aVmodule:net/ceph/libceph
p1475
aVmodule:sound/firewire/snd-firewire-lib
p1476
aVmodule:sound/i2c/other/snd-ak4113
p1477
aVmodule:sound/i2c/other/snd-ak4114
p1478
aVmodule:sound/pci/emu10k1/*
p1479
aVazx_alloc_cmd_io
p1480
aVazx_free_cmd_io
p1481
aVazx_get_response
p1482
aVazx_init_cmd_io
p1483
aVazx_send_cmd
p1484
aVcan_rx_register
p1485
aVcpuidle_*
p1486
aVkvmppc_*
p1487
aVmusb_*
p1488
aVtcp_make_synack
p1489
aVtcp_parse_options
p1490
aVtcp_try_fastopen
p1491
aV__add_pages
p1492
aV__remove_pages
p1493
aVnf_register_queue_handler
p1494
aVof_device_is_stdout_path
p1495
aVmodule:sound/soc/*
p1496
aVblk_rq_check_limits
p1497
aVclk_divider_ro_ops
p1498
aVtick_nohz_idle_enter
p1499
aVtick_nohz_idle_exit
p1500
aVskb_copy_and_csum_datagram_iovec
p1501
aVmodule:net/dccp/dccp
p1502
aVfl6_*
p1503
aVinet_sk_diag_fill
p1504
aVip6_append_data
p1505
aVip6_datagram_send_ctl
p1506
aVip6_xmit
p1507
aVipv6_dup_options
p1508
aVipv6_fixup_options
p1509
aVipv6_push_nfrag_opts
p1510
aVtcp_cong_avoid_ai
p1511
aVtcp_slow_start
p1512
aV__scm_destroy
p1513
aV__scm_send
p1514
aVscm_detach_fds
p1515
aVscm_fp_dup
p1516
aVaf_alg_*
p1517
aVxt_compat_match_from_user
p1518
aVefivar_validate
p1519
aVzpci_disable_device
p1520
aVzpci_enable_device
p1521
aVzpci_stop_device
p1522
aVfsnotify_*_group
p1523
aVfsnotify_*_mark
p1524
ass(Vdescription
p1525
g207
NVpowerpc64le
p1526
tp1527
(dp1528
Vhardware
p1529
VLittle-endian 64-bit PowerPC
p1530
ss(g131
g413
g133
tp1531
(dp1532
g136
I01
sg137
(lp1533
Vpowerpcspe
p1534
ass(Vdescription
p1535
g383
NVs390x
p1536
tp1537
(dp1538
Vhardware
p1539
VIBM zSeries
p1540
ss(Vimage
p1541
g355
NVsparc32
p1542
tp1543
(dp1544
Vimage-postproc
p1545
Vsparc32-image-postproc
p1546
ss(Vdescription
p1547
g43
NVloongson-3
p1548
tp1549
(dp1550
Vhardware
p1551
VLoongson 3A/3B
p1552
sVhardware-long
p1553
VLoongson 3A or 3B based systems (e.g. from Loongson or Lemote)
p1554
ss(Vbase
p1555
g235
g304
tp1556
(dp1557
Vflavours
p1558
(lp1559
V586
p1560
aV686-pae
p1561
aVamd64
p1562
ass(Vbase
p1563
tp1564
(dp1565
Varches
p1566
(lp1567
Valpha
p1568
aVamd64
p1569
aVarm64
p1570
aVarmel
p1571
aVarmhf
p1572
aVhppa
p1573
aVi386
p1574
aVia64
p1575
aVm68k
p1576
aVmips
p1577
aVmipsel
p1578
aVmips64
p1579
aVmips64el
p1580
aVor1k
p1581
aVpowerpc
p1582
aVpowerpcspe
p1583
aVppc64
p1584
aVppc64el
p1585
aVs390
p1586
aVs390x
p1587
aVsh4
p1588
aVsparc
p1589
aVsparc64
p1590
aVx32
p1591
asVfeaturesets
p1592
(lp1593
Vnone
p1594
aVrt
p1595
asVcompiler
p1596
Vgcc-4.8
p1597
ss(Vbuild
p1598
g125
tp1599
(dp1600
Vimage-file
p1601
Vvmlinux.gz
p1602
ss(Vbuild
p1603
g34
tp1604
(dp1605
Vimage-file
p1606
Varch/arm/boot/zImage
p1607
ss(g131
g241
g133
tp1608
(dp1609
g136
I01
sg137
(lp1610
Vpowerpc
p1611
aVpowerpc-smp
p1612
aVpowerpc64
p1613
ass(Vdescription
p1614
g5
NVamd64
p1615
tp1616
(dp1617
Vhardware
p1618
V64-bit PCs
p1619
sVhardware-long
p1620
VPCs with AMD64, Intel 64 or VIA Nano processors
p1621
ss(Vbase
p1622
g207
tp1623
(dp1624
Vkernel-arch
p1625
Vpowerpc
p1626
sg341
(lp1627
g133
ass(Vbase
p1628
g43
tp1629
(dp1630
Vkernel-arch
p1631
Vmips
p1632
sg341
(lp1633
g133
ass(Vbase
p1634
g125
tp1635
(dp1636
Vkernel-arch
p1637
Vm68k
p1638
sg341
(lp1639
g133
asVcflags
p1640
V-ffreestanding
p1641
sVcompiler
p1642
Vgcc-4.8
p1643
ss(Vimage
p1644
tp1645
(dp1646
Vinitramfs-generators
p1647
(lp1648
Vinitramfs-tools
p1649
aVinitramfs-fallback
p1650
asVtype
p1651
Vplain
p1652
ss(Vdescription
p1653
g141
NVocteon
p1654
tp1655
(dp1656
Vhardware
p1657
VOcteon
p1658
sVhardware-long
p1659
VCavium Networks Octeon
p1660
ss(g131
g93
g133
tp1661
(dp1662
g136
I01
sg137
(lp1663
Vsparc64
p1664
aVsparc64-smp
p1665
ass(Vdescription
p1666
g60
NVloongson-2e
p1667
tp1668
(dp1669
Vhardware
p1670
VLoongson 2E
p1671
sVhardware-long
p1672
VLemote Loongson 2E systems
p1673
ss(Vdescription
p1674
g43
NVocteon
p1675
tp1676
(dp1677
Vhardware
p1678
VOcteon
p1679
sVhardware-long
p1680
VCavium Networks Octeon
p1681
ss(Vdescription
p1682
g60
NVloongson-2f
p1683
tp1684
(dp1685
Vhardware
p1686
VLoongson 2F
p1687
sVhardware-long
p1688
VLemote Loongson 2F systems
p1689
ss(Vdescription
p1690
g235
NVamd64
p1691
tp1692
(dp1693
Vhardware
p1694
V64-bit PCs
p1695
sVparts
p1696
(lp1697
Vxen
p1698
asVhardware-long
p1699
VPCs with AMD64, Intel 64 or VIA Nano processors
p1700
ss(Vbase
p1701
Vor1k
p1702
tp1703
(dp1704
Vkernel-arch
p1705
Vopenrisc
p1706
sVfeaturesets
p1707
(lp1708
ss(Vbase
p1709
g277
tp1710
(dp1711
Vkernel-arch
p1712
Vsh
p1713
sg341
(lp1714
g133
ass(Vdescription
p1715
g235
NV686-pae
p1716
tp1717
(dp1718
Vhardware
p1719
Vmodern PCs
p1720
sVparts
p1721
(lp1722
Vpae
p1723
asVhardware-long
p1724
VPCs with one or more processors supporting PAE
p1725
ss(Vbuild
p1726
g235
NV686-pae
p1727
tp1728
(dp1729
Vdebug-info
p1730
I01
ss(Vimage
p1731
g120
tp1732
(dp1733
Vinstall-stem
p1734
Vvmlinuz
p1735
ss(Vimage
p1736
g241
NVpowerpc-smp
p1737
tp1738
(dp1739
Vconfigs
p1740
(lp1741
Vpowerpc/config.powerpc
p1742
aVpowerpc/config.powerpc-smp
p1743
ass(Vbuild
p1744
g235
tp1745
(dp1746
Vimage-file
p1747
Varch/x86/boot/bzImage
p1748
ss(Vdescription
p1749
g355
NVsparc32
p1750
tp1751
(dp1752
Vhardware
p1753
Vuniprocessor sparc32 (sun4m)
p1754
ss(Vimage
p1755
g43
NVloongson-3
p1756
tp1757
(dp1758
Vconfigs
p1759
(lp1760
Vkernelarch-mips/config.loongson-3
p1761
asstp1762
Rp1763
.